

Microchip MPLAB XC8 Assembler V2.10 build 88905656 
                                                                                               Tue Sep  1 13:34:44 2020

Microchip MPLAB XC8 C Compiler v2.10 (Free license) build 20190730164152 Og1 
     1                           	processor	16F1773
     2                           	opt	pw 120
     3                           	opt	flic
     4                           	psect	idataBANK0,global,class=CODE,delta=2
     5                           	psect	stringtext1,global,class=STRCODE,delta=2
     6                           	psect	stringtext2,global,class=STRCODE,delta=2
     7                           	psect	cinit,global,class=CODE,merge=1,delta=2
     8                           	psect	bssBANK0,global,class=BANK0,space=1,delta=1
     9                           	psect	dataBANK0,global,class=BANK0,space=1,delta=1
    10                           	psect	inittext,global,class=CODE,delta=2
    11                           	psect	clrtext,global,class=CODE,delta=2
    12                           	psect	cstackCOMMON,global,class=COMMON,space=1,delta=1
    13                           	psect	cstackBANK0,global,class=BANK0,space=1,delta=1
    14                           	psect	maintext,global,class=CODE,merge=1,split=1,delta=2
    15                           	psect	text1,local,class=CODE,merge=1,delta=2
    16                           	psect	text2,local,class=CODE,merge=1,delta=2
    17                           	psect	text3,local,class=CODE,merge=1,delta=2
    18                           	psect	text4,local,class=CODE,merge=1,delta=2
    19                           	psect	text5,local,class=CODE,merge=1,delta=2
    20                           	psect	text6,local,class=CODE,merge=1,delta=2
    21                           	psect	text7,local,class=CODE,merge=1,delta=2
    22                           	psect	text8,local,class=CODE,merge=1,delta=2
    23                           	psect	text9,local,class=CODE,merge=1,delta=2
    24                           	psect	text10,local,class=CODE,merge=1,delta=2
    25                           	psect	text11,local,class=CODE,merge=1,delta=2
    26                           	psect	text12,local,class=CODE,merge=1,delta=2
    27                           	psect	text13,local,class=CODE,merge=1,delta=2
    28                           	psect	text14,local,class=CODE,merge=1,delta=2
    29                           	psect	text15,local,class=CODE,merge=1,delta=2
    30                           	psect	text16,local,class=CODE,merge=1,delta=2
    31                           	psect	text17,local,class=CODE,merge=1,delta=2
    32                           	psect	text18,local,class=CODE,merge=1,delta=2
    33                           	psect	text19,local,class=CODE,merge=1,delta=2
    34                           	psect	text20,local,class=CODE,merge=1,delta=2
    35                           	psect	text21,local,class=CODE,merge=1,delta=2
    36                           	psect	text22,local,class=CODE,merge=1,delta=2
    37                           	psect	text23,local,class=CODE,merge=1,delta=2
    38                           	psect	text24,local,class=CODE,merge=1,delta=2
    39                           	dabs	1,0x7E,2
    40  0000                     
    41                           ; Version 2.10
    42                           ; Generated 31/07/2019 GMT
    43                           ; 
    44                           ; Copyright © 2019, Microchip Technology Inc. and its subsidiaries ("Microchip")
    45                           ; All rights reserved.
    46                           ; 
    47                           ; This software is developed by Microchip Technology Inc. and its subsidiaries ("Microch
      +                          ip").
    48                           ; 
    49                           ; Redistribution and use in source and binary forms, with or without modification, are
    50                           ; permitted provided that the following conditions are met:
    51                           ; 
    52                           ;     1. Redistributions of source code must retain the above copyright notice, this lis
      +                          t of
    53                           ;        conditions and the following disclaimer.
    54                           ; 
    55                           ;     2. Redistributions in binary form must reproduce the above copyright notice, this 
      +                          list
    56                           ;        of conditions and the following disclaimer in the documentation and/or other
    57                           ;        materials provided with the distribution.
    58                           ; 
    59                           ;     3. Microchip's name may not be used to endorse or promote products derived from th
      +                          is
    60                           ;        software without specific prior written permission.
    61                           ; 
    62                           ; THIS SOFTWARE IS PROVIDED BY MICROCHIP "AS IS" AND ANY EXPRESS OR IMPLIED WARRANTIES,
    63                           ; INCLUDING, BUT NOT LIMITED TO, THE IMPLIED WARRANTIES OF MERCHANTABILITY AND FITNESS F
      +                          OR
    64                           ; PURPOSE ARE DISCLAIMED.  IN NO EVENT SHALL MICROCHIP BE LIABLE FOR ANY DIRECT, INDIREC
      +                          T,
    65                           ; INCIDENTAL, SPECIAL, EXEMPLARY, OR CONSEQUENTIAL DAMAGES (INCLUDING BUT NOT LIMITED TO
    66                           ; PROCUREMENT OF SUBSTITUTE GOODS OR SERVICES; LOSS OF USE, DATA OR PROFITS; OR BUSINESS
    67                           ; INTERRUPTION) HOWSOEVER CAUSED AND ON ANY THEORY OF LIABILITY, WHETHER IN CONTRACT, ST
      +                          RICT
    68                           ; LIABILITY, OR TORT (INCLUDING NEGLIGENCE OR OTHERWISE) ARISING IN ANY WAY OUT OF THE U
      +                          SE OF
    69                           ; THIS SOFTWARE, EVEN IF ADVISED OF THE POSSIBILITY OF SUCH DAMAGE.
    70                           ; 
    71                           ; 
    72                           ; Code-generator required, PIC16F1773 Definitions
    73                           ; 
    74                           ; SFR Addresses
    75  0000                     	;# 
    76  0001                     	;# 
    77  0002                     	;# 
    78  0003                     	;# 
    79  0004                     	;# 
    80  0005                     	;# 
    81  0006                     	;# 
    82  0007                     	;# 
    83  0008                     	;# 
    84  0009                     	;# 
    85  000A                     	;# 
    86  000B                     	;# 
    87  000C                     	;# 
    88  000D                     	;# 
    89  000E                     	;# 
    90  0010                     	;# 
    91  0011                     	;# 
    92  0012                     	;# 
    93  0013                     	;# 
    94  0014                     	;# 
    95  0015                     	;# 
    96  0016                     	;# 
    97  0017                     	;# 
    98  0018                     	;# 
    99  0018                     	;# 
   100  0019                     	;# 
   101  001A                     	;# 
   102  001B                     	;# 
   103  001C                     	;# 
   104  001C                     	;# 
   105  001D                     	;# 
   106  001E                     	;# 
   107  001F                     	;# 
   108  008C                     	;# 
   109  008D                     	;# 
   110  008E                     	;# 
   111  0090                     	;# 
   112  0091                     	;# 
   113  0092                     	;# 
   114  0093                     	;# 
   115  0094                     	;# 
   116  0095                     	;# 
   117  0096                     	;# 
   118  0097                     	;# 
   119  0098                     	;# 
   120  0099                     	;# 
   121  009A                     	;# 
   122  009B                     	;# 
   123  009C                     	;# 
   124  009D                     	;# 
   125  009E                     	;# 
   126  009F                     	;# 
   127  010C                     	;# 
   128  010D                     	;# 
   129  010E                     	;# 
   130  0111                     	;# 
   131  0112                     	;# 
   132  0113                     	;# 
   133  0114                     	;# 
   134  0115                     	;# 
   135  0116                     	;# 
   136  0117                     	;# 
   137  0118                     	;# 
   138  0119                     	;# 
   139  011A                     	;# 
   140  011B                     	;# 
   141  011C                     	;# 
   142  011D                     	;# 
   143  018C                     	;# 
   144  018D                     	;# 
   145  018E                     	;# 
   146  0191                     	;# 
   147  0191                     	;# 
   148  0192                     	;# 
   149  0193                     	;# 
   150  0193                     	;# 
   151  0194                     	;# 
   152  0195                     	;# 
   153  0196                     	;# 
   154  0197                     	;# 
   155  0199                     	;# 
   156  0199                     	;# 
   157  0199                     	;# 
   158  019A                     	;# 
   159  019A                     	;# 
   160  019A                     	;# 
   161  019B                     	;# 
   162  019B                     	;# 
   163  019B                     	;# 
   164  019B                     	;# 
   165  019B                     	;# 
   166  019C                     	;# 
   167  019C                     	;# 
   168  019C                     	;# 
   169  019D                     	;# 
   170  019D                     	;# 
   171  019D                     	;# 
   172  019E                     	;# 
   173  019E                     	;# 
   174  019E                     	;# 
   175  019F                     	;# 
   176  019F                     	;# 
   177  019F                     	;# 
   178  019F                     	;# 
   179  019F                     	;# 
   180  020C                     	;# 
   181  020D                     	;# 
   182  020E                     	;# 
   183  0210                     	;# 
   184  0211                     	;# 
   185  0211                     	;# 
   186  0212                     	;# 
   187  0212                     	;# 
   188  0213                     	;# 
   189  0213                     	;# 
   190  0214                     	;# 
   191  0214                     	;# 
   192  0215                     	;# 
   193  0215                     	;# 
   194  0215                     	;# 
   195  0215                     	;# 
   196  0216                     	;# 
   197  0216                     	;# 
   198  0217                     	;# 
   199  0217                     	;# 
   200  021B                     	;# 
   201  021C                     	;# 
   202  021D                     	;# 
   203  021E                     	;# 
   204  021F                     	;# 
   205  028C                     	;# 
   206  028D                     	;# 
   207  028E                     	;# 
   208  0291                     	;# 
   209  0291                     	;# 
   210  0292                     	;# 
   211  0293                     	;# 
   212  0294                     	;# 
   213  0295                     	;# 
   214  0295                     	;# 
   215  0296                     	;# 
   216  0297                     	;# 
   217  0298                     	;# 
   218  0299                     	;# 
   219  0299                     	;# 
   220  029A                     	;# 
   221  029B                     	;# 
   222  029C                     	;# 
   223  029E                     	;# 
   224  029F                     	;# 
   225  030C                     	;# 
   226  030D                     	;# 
   227  030E                     	;# 
   228  0315                     	;# 
   229  0316                     	;# 
   230  0317                     	;# 
   231  0318                     	;# 
   232  0319                     	;# 
   233  031B                     	;# 
   234  031C                     	;# 
   235  031D                     	;# 
   236  031E                     	;# 
   237  031F                     	;# 
   238  038C                     	;# 
   239  038D                     	;# 
   240  038E                     	;# 
   241  0390                     	;# 
   242  0391                     	;# 
   243  0392                     	;# 
   244  0393                     	;# 
   245  0394                     	;# 
   246  0395                     	;# 
   247  0396                     	;# 
   248  0397                     	;# 
   249  0398                     	;# 
   250  0399                     	;# 
   251  039D                     	;# 
   252  039E                     	;# 
   253  039F                     	;# 
   254  040D                     	;# 
   255  040F                     	;# 
   256  040F                     	;# 
   257  0410                     	;# 
   258  0411                     	;# 
   259  0412                     	;# 
   260  0413                     	;# 
   261  0413                     	;# 
   262  0414                     	;# 
   263  0414                     	;# 
   264  0415                     	;# 
   265  0416                     	;# 
   266  0417                     	;# 
   267  0418                     	;# 
   268  041A                     	;# 
   269  041A                     	;# 
   270  041B                     	;# 
   271  041B                     	;# 
   272  041C                     	;# 
   273  041D                     	;# 
   274  041E                     	;# 
   275  041F                     	;# 
   276  048E                     	;# 
   277  048E                     	;# 
   278  048F                     	;# 
   279  0490                     	;# 
   280  0491                     	;# 
   281  0492                     	;# 
   282  0493                     	;# 
   283  0493                     	;# 
   284  0494                     	;# 
   285  0494                     	;# 
   286  0495                     	;# 
   287  0496                     	;# 
   288  0497                     	;# 
   289  0498                     	;# 
   290  049A                     	;# 
   291  049A                     	;# 
   292  049B                     	;# 
   293  049B                     	;# 
   294  049C                     	;# 
   295  049D                     	;# 
   296  049E                     	;# 
   297  049F                     	;# 
   298  050F                     	;# 
   299  0510                     	;# 
   300  0511                     	;# 
   301  0512                     	;# 
   302  0513                     	;# 
   303  0514                     	;# 
   304  0515                     	;# 
   305  0516                     	;# 
   306  0517                     	;# 
   307  0518                     	;# 
   308  0519                     	;# 
   309  051A                     	;# 
   310  058D                     	;# 
   311  058E                     	;# 
   312  058F                     	;# 
   313  058F                     	;# 
   314  058F                     	;# 
   315  0590                     	;# 
   316  0590                     	;# 
   317  0591                     	;# 
   318  0592                     	;# 
   319  0592                     	;# 
   320  0592                     	;# 
   321  0593                     	;# 
   322  0593                     	;# 
   323  0594                     	;# 
   324  0595                     	;# 
   325  0595                     	;# 
   326  0596                     	;# 
   327  0597                     	;# 
   328  0597                     	;# 
   329  0598                     	;# 
   330  0599                     	;# 
   331  0599                     	;# 
   332  0599                     	;# 
   333  059A                     	;# 
   334  059A                     	;# 
   335  059E                     	;# 
   336  059F                     	;# 
   337  059F                     	;# 
   338  0614                     	;# 
   339  0614                     	;# 
   340  0615                     	;# 
   341  0616                     	;# 
   342  0617                     	;# 
   343  0617                     	;# 
   344  0618                     	;# 
   345  0619                     	;# 
   346  061A                     	;# 
   347  061A                     	;# 
   348  061B                     	;# 
   349  061C                     	;# 
   350  068D                     	;# 
   351  068E                     	;# 
   352  068F                     	;# 
   353  0690                     	;# 
   354  0691                     	;# 
   355  0692                     	;# 
   356  0693                     	;# 
   357  0694                     	;# 
   358  0695                     	;# 
   359  0696                     	;# 
   360  0697                     	;# 
   361  0698                     	;# 
   362  0699                     	;# 
   363  069A                     	;# 
   364  069B                     	;# 
   365  069C                     	;# 
   366  069D                     	;# 
   367  069E                     	;# 
   368  069F                     	;# 
   369  070D                     	;# 
   370  070E                     	;# 
   371  070F                     	;# 
   372  0710                     	;# 
   373  0711                     	;# 
   374  0712                     	;# 
   375  0713                     	;# 
   376  0714                     	;# 
   377  0715                     	;# 
   378  0716                     	;# 
   379  0717                     	;# 
   380  0718                     	;# 
   381  0719                     	;# 
   382  071A                     	;# 
   383  071B                     	;# 
   384  071C                     	;# 
   385  071D                     	;# 
   386  071E                     	;# 
   387  071F                     	;# 
   388  078E                     	;# 
   389  078F                     	;# 
   390  0790                     	;# 
   391  0791                     	;# 
   392  0792                     	;# 
   393  0793                     	;# 
   394  0794                     	;# 
   395  0795                     	;# 
   396  0796                     	;# 
   397  0797                     	;# 
   398  0798                     	;# 
   399  0799                     	;# 
   400  079A                     	;# 
   401  079B                     	;# 
   402  079C                     	;# 
   403  079D                     	;# 
   404  079E                     	;# 
   405  079F                     	;# 
   406  080D                     	;# 
   407  080E                     	;# 
   408  080F                     	;# 
   409  0810                     	;# 
   410  0811                     	;# 
   411  0812                     	;# 
   412  0813                     	;# 
   413  0814                     	;# 
   414  0815                     	;# 
   415  0816                     	;# 
   416  0817                     	;# 
   417  0818                     	;# 
   418  0819                     	;# 
   419  081A                     	;# 
   420  081B                     	;# 
   421  081C                     	;# 
   422  081D                     	;# 
   423  081E                     	;# 
   424  081F                     	;# 
   425  090C                     	;# 
   426  090D                     	;# 
   427  090E                     	;# 
   428  090F                     	;# 
   429  0910                     	;# 
   430  0911                     	;# 
   431  0912                     	;# 
   432  0913                     	;# 
   433  0914                     	;# 
   434  0915                     	;# 
   435  0916                     	;# 
   436  0917                     	;# 
   437  0D8E                     	;# 
   438  0D8F                     	;# 
   439  0D90                     	;# 
   440  0D91                     	;# 
   441  0D91                     	;# 
   442  0D92                     	;# 
   443  0D93                     	;# 
   444  0D93                     	;# 
   445  0D94                     	;# 
   446  0D95                     	;# 
   447  0D95                     	;# 
   448  0D96                     	;# 
   449  0D97                     	;# 
   450  0D97                     	;# 
   451  0D98                     	;# 
   452  0D99                     	;# 
   453  0D99                     	;# 
   454  0D9A                     	;# 
   455  0D9B                     	;# 
   456  0D9C                     	;# 
   457  0D9C                     	;# 
   458  0D9D                     	;# 
   459  0D9D                     	;# 
   460  0D9E                     	;# 
   461  0D9F                     	;# 
   462  0DA0                     	;# 
   463  0DA1                     	;# 
   464  0DA1                     	;# 
   465  0DA2                     	;# 
   466  0DA3                     	;# 
   467  0DA3                     	;# 
   468  0DA4                     	;# 
   469  0DA5                     	;# 
   470  0DA5                     	;# 
   471  0DA6                     	;# 
   472  0DA7                     	;# 
   473  0DA7                     	;# 
   474  0DA8                     	;# 
   475  0DA9                     	;# 
   476  0DA9                     	;# 
   477  0DAA                     	;# 
   478  0DAB                     	;# 
   479  0DAC                     	;# 
   480  0DAC                     	;# 
   481  0DAD                     	;# 
   482  0DAD                     	;# 
   483  0DAE                     	;# 
   484  0DAF                     	;# 
   485  0DB0                     	;# 
   486  0DB1                     	;# 
   487  0DB1                     	;# 
   488  0DB2                     	;# 
   489  0DB3                     	;# 
   490  0DB3                     	;# 
   491  0DB4                     	;# 
   492  0DB5                     	;# 
   493  0DB5                     	;# 
   494  0DB6                     	;# 
   495  0DB7                     	;# 
   496  0DB7                     	;# 
   497  0DB8                     	;# 
   498  0DB9                     	;# 
   499  0DB9                     	;# 
   500  0DBA                     	;# 
   501  0DBB                     	;# 
   502  0DBC                     	;# 
   503  0DBC                     	;# 
   504  0DBD                     	;# 
   505  0DBD                     	;# 
   506  0DBE                     	;# 
   507  0DBF                     	;# 
   508  0DC0                     	;# 
   509  0E0C                     	;# 
   510  0E0D                     	;# 
   511  0E0E                     	;# 
   512  0E0F                     	;# 
   513  0E10                     	;# 
   514  0E11                     	;# 
   515  0E12                     	;# 
   516  0E13                     	;# 
   517  0E14                     	;# 
   518  0E15                     	;# 
   519  0E15                     	;# 
   520  0E15                     	;# 
   521  0E16                     	;# 
   522  0E16                     	;# 
   523  0E16                     	;# 
   524  0E17                     	;# 
   525  0E17                     	;# 
   526  0E17                     	;# 
   527  0E18                     	;# 
   528  0E18                     	;# 
   529  0E18                     	;# 
   530  0E19                     	;# 
   531  0E1A                     	;# 
   532  0E1B                     	;# 
   533  0E1D                     	;# 
   534  0E1E                     	;# 
   535  0E1F                     	;# 
   536  0E21                     	;# 
   537  0E22                     	;# 
   538  0E23                     	;# 
   539  0E24                     	;# 
   540  0E25                     	;# 
   541  0E26                     	;# 
   542  0E27                     	;# 
   543  0E28                     	;# 
   544  0E29                     	;# 
   545  0E2D                     	;# 
   546  0E2E                     	;# 
   547  0E2F                     	;# 
   548  0E30                     	;# 
   549  0E31                     	;# 
   550  0E32                     	;# 
   551  0E35                     	;# 
   552  0E36                     	;# 
   553  0E37                     	;# 
   554  0E38                     	;# 
   555  0E39                     	;# 
   556  0E3A                     	;# 
   557  0E3B                     	;# 
   558  0E3C                     	;# 
   559  0E3D                     	;# 
   560  0E3E                     	;# 
   561  0E90                     	;# 
   562  0E91                     	;# 
   563  0E92                     	;# 
   564  0E93                     	;# 
   565  0E94                     	;# 
   566  0E95                     	;# 
   567  0E96                     	;# 
   568  0E97                     	;# 
   569  0E98                     	;# 
   570  0E99                     	;# 
   571  0E9A                     	;# 
   572  0E9B                     	;# 
   573  0E9C                     	;# 
   574  0E9D                     	;# 
   575  0E9E                     	;# 
   576  0E9F                     	;# 
   577  0EA0                     	;# 
   578  0EA1                     	;# 
   579  0EA2                     	;# 
   580  0EA3                     	;# 
   581  0EA4                     	;# 
   582  0EA5                     	;# 
   583  0EA6                     	;# 
   584  0EA7                     	;# 
   585  0F0F                     	;# 
   586  0F10                     	;# 
   587  0F11                     	;# 
   588  0F12                     	;# 
   589  0F13                     	;# 
   590  0F14                     	;# 
   591  0F15                     	;# 
   592  0F16                     	;# 
   593  0F17                     	;# 
   594  0F18                     	;# 
   595  0F19                     	;# 
   596  0F1A                     	;# 
   597  0F1B                     	;# 
   598  0F1C                     	;# 
   599  0F1D                     	;# 
   600  0F1E                     	;# 
   601  0F1F                     	;# 
   602  0F20                     	;# 
   603  0F21                     	;# 
   604  0F22                     	;# 
   605  0F23                     	;# 
   606  0F24                     	;# 
   607  0F25                     	;# 
   608  0F26                     	;# 
   609  0F27                     	;# 
   610  0F28                     	;# 
   611  0F29                     	;# 
   612  0F2A                     	;# 
   613  0F2B                     	;# 
   614  0F2C                     	;# 
   615  0F2D                     	;# 
   616  0F2E                     	;# 
   617  0F2F                     	;# 
   618  0F30                     	;# 
   619  0F31                     	;# 
   620  0F32                     	;# 
   621  0F33                     	;# 
   622  0F34                     	;# 
   623  0F35                     	;# 
   624  0F36                     	;# 
   625  0F37                     	;# 
   626  0FE4                     	;# 
   627  0FE5                     	;# 
   628  0FE6                     	;# 
   629  0FE7                     	;# 
   630  0FE8                     	;# 
   631  0FE9                     	;# 
   632  0FEA                     	;# 
   633  0FEB                     	;# 
   634  0FED                     	;# 
   635  0FEE                     	;# 
   636  0FEF                     	;# 
   637  0000                     	;# 
   638  0001                     	;# 
   639  0002                     	;# 
   640  0003                     	;# 
   641  0004                     	;# 
   642  0005                     	;# 
   643  0006                     	;# 
   644  0007                     	;# 
   645  0008                     	;# 
   646  0009                     	;# 
   647  000A                     	;# 
   648  000B                     	;# 
   649  000C                     	;# 
   650  000D                     	;# 
   651  000E                     	;# 
   652  0010                     	;# 
   653  0011                     	;# 
   654  0012                     	;# 
   655  0013                     	;# 
   656  0014                     	;# 
   657  0015                     	;# 
   658  0016                     	;# 
   659  0017                     	;# 
   660  0018                     	;# 
   661  0018                     	;# 
   662  0019                     	;# 
   663  001A                     	;# 
   664  001B                     	;# 
   665  001C                     	;# 
   666  001C                     	;# 
   667  001D                     	;# 
   668  001E                     	;# 
   669  001F                     	;# 
   670  008C                     	;# 
   671  008D                     	;# 
   672  008E                     	;# 
   673  0090                     	;# 
   674  0091                     	;# 
   675  0092                     	;# 
   676  0093                     	;# 
   677  0094                     	;# 
   678  0095                     	;# 
   679  0096                     	;# 
   680  0097                     	;# 
   681  0098                     	;# 
   682  0099                     	;# 
   683  009A                     	;# 
   684  009B                     	;# 
   685  009C                     	;# 
   686  009D                     	;# 
   687  009E                     	;# 
   688  009F                     	;# 
   689  010C                     	;# 
   690  010D                     	;# 
   691  010E                     	;# 
   692  0111                     	;# 
   693  0112                     	;# 
   694  0113                     	;# 
   695  0114                     	;# 
   696  0115                     	;# 
   697  0116                     	;# 
   698  0117                     	;# 
   699  0118                     	;# 
   700  0119                     	;# 
   701  011A                     	;# 
   702  011B                     	;# 
   703  011C                     	;# 
   704  011D                     	;# 
   705  018C                     	;# 
   706  018D                     	;# 
   707  018E                     	;# 
   708  0191                     	;# 
   709  0191                     	;# 
   710  0192                     	;# 
   711  0193                     	;# 
   712  0193                     	;# 
   713  0194                     	;# 
   714  0195                     	;# 
   715  0196                     	;# 
   716  0197                     	;# 
   717  0199                     	;# 
   718  0199                     	;# 
   719  0199                     	;# 
   720  019A                     	;# 
   721  019A                     	;# 
   722  019A                     	;# 
   723  019B                     	;# 
   724  019B                     	;# 
   725  019B                     	;# 
   726  019B                     	;# 
   727  019B                     	;# 
   728  019C                     	;# 
   729  019C                     	;# 
   730  019C                     	;# 
   731  019D                     	;# 
   732  019D                     	;# 
   733  019D                     	;# 
   734  019E                     	;# 
   735  019E                     	;# 
   736  019E                     	;# 
   737  019F                     	;# 
   738  019F                     	;# 
   739  019F                     	;# 
   740  019F                     	;# 
   741  019F                     	;# 
   742  020C                     	;# 
   743  020D                     	;# 
   744  020E                     	;# 
   745  0210                     	;# 
   746  0211                     	;# 
   747  0211                     	;# 
   748  0212                     	;# 
   749  0212                     	;# 
   750  0213                     	;# 
   751  0213                     	;# 
   752  0214                     	;# 
   753  0214                     	;# 
   754  0215                     	;# 
   755  0215                     	;# 
   756  0215                     	;# 
   757  0215                     	;# 
   758  0216                     	;# 
   759  0216                     	;# 
   760  0217                     	;# 
   761  0217                     	;# 
   762  021B                     	;# 
   763  021C                     	;# 
   764  021D                     	;# 
   765  021E                     	;# 
   766  021F                     	;# 
   767  028C                     	;# 
   768  028D                     	;# 
   769  028E                     	;# 
   770  0291                     	;# 
   771  0291                     	;# 
   772  0292                     	;# 
   773  0293                     	;# 
   774  0294                     	;# 
   775  0295                     	;# 
   776  0295                     	;# 
   777  0296                     	;# 
   778  0297                     	;# 
   779  0298                     	;# 
   780  0299                     	;# 
   781  0299                     	;# 
   782  029A                     	;# 
   783  029B                     	;# 
   784  029C                     	;# 
   785  029E                     	;# 
   786  029F                     	;# 
   787  030C                     	;# 
   788  030D                     	;# 
   789  030E                     	;# 
   790  0315                     	;# 
   791  0316                     	;# 
   792  0317                     	;# 
   793  0318                     	;# 
   794  0319                     	;# 
   795  031B                     	;# 
   796  031C                     	;# 
   797  031D                     	;# 
   798  031E                     	;# 
   799  031F                     	;# 
   800  038C                     	;# 
   801  038D                     	;# 
   802  038E                     	;# 
   803  0390                     	;# 
   804  0391                     	;# 
   805  0392                     	;# 
   806  0393                     	;# 
   807  0394                     	;# 
   808  0395                     	;# 
   809  0396                     	;# 
   810  0397                     	;# 
   811  0398                     	;# 
   812  0399                     	;# 
   813  039D                     	;# 
   814  039E                     	;# 
   815  039F                     	;# 
   816  040D                     	;# 
   817  040F                     	;# 
   818  040F                     	;# 
   819  0410                     	;# 
   820  0411                     	;# 
   821  0412                     	;# 
   822  0413                     	;# 
   823  0413                     	;# 
   824  0414                     	;# 
   825  0414                     	;# 
   826  0415                     	;# 
   827  0416                     	;# 
   828  0417                     	;# 
   829  0418                     	;# 
   830  041A                     	;# 
   831  041A                     	;# 
   832  041B                     	;# 
   833  041B                     	;# 
   834  041C                     	;# 
   835  041D                     	;# 
   836  041E                     	;# 
   837  041F                     	;# 
   838  048E                     	;# 
   839  048E                     	;# 
   840  048F                     	;# 
   841  0490                     	;# 
   842  0491                     	;# 
   843  0492                     	;# 
   844  0493                     	;# 
   845  0493                     	;# 
   846  0494                     	;# 
   847  0494                     	;# 
   848  0495                     	;# 
   849  0496                     	;# 
   850  0497                     	;# 
   851  0498                     	;# 
   852  049A                     	;# 
   853  049A                     	;# 
   854  049B                     	;# 
   855  049B                     	;# 
   856  049C                     	;# 
   857  049D                     	;# 
   858  049E                     	;# 
   859  049F                     	;# 
   860  050F                     	;# 
   861  0510                     	;# 
   862  0511                     	;# 
   863  0512                     	;# 
   864  0513                     	;# 
   865  0514                     	;# 
   866  0515                     	;# 
   867  0516                     	;# 
   868  0517                     	;# 
   869  0518                     	;# 
   870  0519                     	;# 
   871  051A                     	;# 
   872  058D                     	;# 
   873  058E                     	;# 
   874  058F                     	;# 
   875  058F                     	;# 
   876  058F                     	;# 
   877  0590                     	;# 
   878  0590                     	;# 
   879  0591                     	;# 
   880  0592                     	;# 
   881  0592                     	;# 
   882  0592                     	;# 
   883  0593                     	;# 
   884  0593                     	;# 
   885  0594                     	;# 
   886  0595                     	;# 
   887  0595                     	;# 
   888  0596                     	;# 
   889  0597                     	;# 
   890  0597                     	;# 
   891  0598                     	;# 
   892  0599                     	;# 
   893  0599                     	;# 
   894  0599                     	;# 
   895  059A                     	;# 
   896  059A                     	;# 
   897  059E                     	;# 
   898  059F                     	;# 
   899  059F                     	;# 
   900  0614                     	;# 
   901  0614                     	;# 
   902  0615                     	;# 
   903  0616                     	;# 
   904  0617                     	;# 
   905  0617                     	;# 
   906  0618                     	;# 
   907  0619                     	;# 
   908  061A                     	;# 
   909  061A                     	;# 
   910  061B                     	;# 
   911  061C                     	;# 
   912  068D                     	;# 
   913  068E                     	;# 
   914  068F                     	;# 
   915  0690                     	;# 
   916  0691                     	;# 
   917  0692                     	;# 
   918  0693                     	;# 
   919  0694                     	;# 
   920  0695                     	;# 
   921  0696                     	;# 
   922  0697                     	;# 
   923  0698                     	;# 
   924  0699                     	;# 
   925  069A                     	;# 
   926  069B                     	;# 
   927  069C                     	;# 
   928  069D                     	;# 
   929  069E                     	;# 
   930  069F                     	;# 
   931  070D                     	;# 
   932  070E                     	;# 
   933  070F                     	;# 
   934  0710                     	;# 
   935  0711                     	;# 
   936  0712                     	;# 
   937  0713                     	;# 
   938  0714                     	;# 
   939  0715                     	;# 
   940  0716                     	;# 
   941  0717                     	;# 
   942  0718                     	;# 
   943  0719                     	;# 
   944  071A                     	;# 
   945  071B                     	;# 
   946  071C                     	;# 
   947  071D                     	;# 
   948  071E                     	;# 
   949  071F                     	;# 
   950  078E                     	;# 
   951  078F                     	;# 
   952  0790                     	;# 
   953  0791                     	;# 
   954  0792                     	;# 
   955  0793                     	;# 
   956  0794                     	;# 
   957  0795                     	;# 
   958  0796                     	;# 
   959  0797                     	;# 
   960  0798                     	;# 
   961  0799                     	;# 
   962  079A                     	;# 
   963  079B                     	;# 
   964  079C                     	;# 
   965  079D                     	;# 
   966  079E                     	;# 
   967  079F                     	;# 
   968  080D                     	;# 
   969  080E                     	;# 
   970  080F                     	;# 
   971  0810                     	;# 
   972  0811                     	;# 
   973  0812                     	;# 
   974  0813                     	;# 
   975  0814                     	;# 
   976  0815                     	;# 
   977  0816                     	;# 
   978  0817                     	;# 
   979  0818                     	;# 
   980  0819                     	;# 
   981  081A                     	;# 
   982  081B                     	;# 
   983  081C                     	;# 
   984  081D                     	;# 
   985  081E                     	;# 
   986  081F                     	;# 
   987  090C                     	;# 
   988  090D                     	;# 
   989  090E                     	;# 
   990  090F                     	;# 
   991  0910                     	;# 
   992  0911                     	;# 
   993  0912                     	;# 
   994  0913                     	;# 
   995  0914                     	;# 
   996  0915                     	;# 
   997  0916                     	;# 
   998  0917                     	;# 
   999  0D8E                     	;# 
  1000  0D8F                     	;# 
  1001  0D90                     	;# 
  1002  0D91                     	;# 
  1003  0D91                     	;# 
  1004  0D92                     	;# 
  1005  0D93                     	;# 
  1006  0D93                     	;# 
  1007  0D94                     	;# 
  1008  0D95                     	;# 
  1009  0D95                     	;# 
  1010  0D96                     	;# 
  1011  0D97                     	;# 
  1012  0D97                     	;# 
  1013  0D98                     	;# 
  1014  0D99                     	;# 
  1015  0D99                     	;# 
  1016  0D9A                     	;# 
  1017  0D9B                     	;# 
  1018  0D9C                     	;# 
  1019  0D9C                     	;# 
  1020  0D9D                     	;# 
  1021  0D9D                     	;# 
  1022  0D9E                     	;# 
  1023  0D9F                     	;# 
  1024  0DA0                     	;# 
  1025  0DA1                     	;# 
  1026  0DA1                     	;# 
  1027  0DA2                     	;# 
  1028  0DA3                     	;# 
  1029  0DA3                     	;# 
  1030  0DA4                     	;# 
  1031  0DA5                     	;# 
  1032  0DA5                     	;# 
  1033  0DA6                     	;# 
  1034  0DA7                     	;# 
  1035  0DA7                     	;# 
  1036  0DA8                     	;# 
  1037  0DA9                     	;# 
  1038  0DA9                     	;# 
  1039  0DAA                     	;# 
  1040  0DAB                     	;# 
  1041  0DAC                     	;# 
  1042  0DAC                     	;# 
  1043  0DAD                     	;# 
  1044  0DAD                     	;# 
  1045  0DAE                     	;# 
  1046  0DAF                     	;# 
  1047  0DB0                     	;# 
  1048  0DB1                     	;# 
  1049  0DB1                     	;# 
  1050  0DB2                     	;# 
  1051  0DB3                     	;# 
  1052  0DB3                     	;# 
  1053  0DB4                     	;# 
  1054  0DB5                     	;# 
  1055  0DB5                     	;# 
  1056  0DB6                     	;# 
  1057  0DB7                     	;# 
  1058  0DB7                     	;# 
  1059  0DB8                     	;# 
  1060  0DB9                     	;# 
  1061  0DB9                     	;# 
  1062  0DBA                     	;# 
  1063  0DBB                     	;# 
  1064  0DBC                     	;# 
  1065  0DBC                     	;# 
  1066  0DBD                     	;# 
  1067  0DBD                     	;# 
  1068  0DBE                     	;# 
  1069  0DBF                     	;# 
  1070  0DC0                     	;# 
  1071  0E0C                     	;# 
  1072  0E0D                     	;# 
  1073  0E0E                     	;# 
  1074  0E0F                     	;# 
  1075  0E10                     	;# 
  1076  0E11                     	;# 
  1077  0E12                     	;# 
  1078  0E13                     	;# 
  1079  0E14                     	;# 
  1080  0E15                     	;# 
  1081  0E15                     	;# 
  1082  0E15                     	;# 
  1083  0E16                     	;# 
  1084  0E16                     	;# 
  1085  0E16                     	;# 
  1086  0E17                     	;# 
  1087  0E17                     	;# 
  1088  0E17                     	;# 
  1089  0E18                     	;# 
  1090  0E18                     	;# 
  1091  0E18                     	;# 
  1092  0E19                     	;# 
  1093  0E1A                     	;# 
  1094  0E1B                     	;# 
  1095  0E1D                     	;# 
  1096  0E1E                     	;# 
  1097  0E1F                     	;# 
  1098  0E21                     	;# 
  1099  0E22                     	;# 
  1100  0E23                     	;# 
  1101  0E24                     	;# 
  1102  0E25                     	;# 
  1103  0E26                     	;# 
  1104  0E27                     	;# 
  1105  0E28                     	;# 
  1106  0E29                     	;# 
  1107  0E2D                     	;# 
  1108  0E2E                     	;# 
  1109  0E2F                     	;# 
  1110  0E30                     	;# 
  1111  0E31                     	;# 
  1112  0E32                     	;# 
  1113  0E35                     	;# 
  1114  0E36                     	;# 
  1115  0E37                     	;# 
  1116  0E38                     	;# 
  1117  0E39                     	;# 
  1118  0E3A                     	;# 
  1119  0E3B                     	;# 
  1120  0E3C                     	;# 
  1121  0E3D                     	;# 
  1122  0E3E                     	;# 
  1123  0E90                     	;# 
  1124  0E91                     	;# 
  1125  0E92                     	;# 
  1126  0E93                     	;# 
  1127  0E94                     	;# 
  1128  0E95                     	;# 
  1129  0E96                     	;# 
  1130  0E97                     	;# 
  1131  0E98                     	;# 
  1132  0E99                     	;# 
  1133  0E9A                     	;# 
  1134  0E9B                     	;# 
  1135  0E9C                     	;# 
  1136  0E9D                     	;# 
  1137  0E9E                     	;# 
  1138  0E9F                     	;# 
  1139  0EA0                     	;# 
  1140  0EA1                     	;# 
  1141  0EA2                     	;# 
  1142  0EA3                     	;# 
  1143  0EA4                     	;# 
  1144  0EA5                     	;# 
  1145  0EA6                     	;# 
  1146  0EA7                     	;# 
  1147  0F0F                     	;# 
  1148  0F10                     	;# 
  1149  0F11                     	;# 
  1150  0F12                     	;# 
  1151  0F13                     	;# 
  1152  0F14                     	;# 
  1153  0F15                     	;# 
  1154  0F16                     	;# 
  1155  0F17                     	;# 
  1156  0F18                     	;# 
  1157  0F19                     	;# 
  1158  0F1A                     	;# 
  1159  0F1B                     	;# 
  1160  0F1C                     	;# 
  1161  0F1D                     	;# 
  1162  0F1E                     	;# 
  1163  0F1F                     	;# 
  1164  0F20                     	;# 
  1165  0F21                     	;# 
  1166  0F22                     	;# 
  1167  0F23                     	;# 
  1168  0F24                     	;# 
  1169  0F25                     	;# 
  1170  0F26                     	;# 
  1171  0F27                     	;# 
  1172  0F28                     	;# 
  1173  0F29                     	;# 
  1174  0F2A                     	;# 
  1175  0F2B                     	;# 
  1176  0F2C                     	;# 
  1177  0F2D                     	;# 
  1178  0F2E                     	;# 
  1179  0F2F                     	;# 
  1180  0F30                     	;# 
  1181  0F31                     	;# 
  1182  0F32                     	;# 
  1183  0F33                     	;# 
  1184  0F34                     	;# 
  1185  0F35                     	;# 
  1186  0F36                     	;# 
  1187  0F37                     	;# 
  1188  0FE4                     	;# 
  1189  0FE5                     	;# 
  1190  0FE6                     	;# 
  1191  0FE7                     	;# 
  1192  0FE8                     	;# 
  1193  0FE9                     	;# 
  1194  0FEA                     	;# 
  1195  0FEB                     	;# 
  1196  0FED                     	;# 
  1197  0FEE                     	;# 
  1198  0FEF                     	;# 
  1199  0000                     	;# 
  1200  0001                     	;# 
  1201  0002                     	;# 
  1202  0003                     	;# 
  1203  0004                     	;# 
  1204  0005                     	;# 
  1205  0006                     	;# 
  1206  0007                     	;# 
  1207  0008                     	;# 
  1208  0009                     	;# 
  1209  000A                     	;# 
  1210  000B                     	;# 
  1211  000C                     	;# 
  1212  000D                     	;# 
  1213  000E                     	;# 
  1214  0010                     	;# 
  1215  0011                     	;# 
  1216  0012                     	;# 
  1217  0013                     	;# 
  1218  0014                     	;# 
  1219  0015                     	;# 
  1220  0016                     	;# 
  1221  0017                     	;# 
  1222  0018                     	;# 
  1223  0018                     	;# 
  1224  0019                     	;# 
  1225  001A                     	;# 
  1226  001B                     	;# 
  1227  001C                     	;# 
  1228  001C                     	;# 
  1229  001D                     	;# 
  1230  001E                     	;# 
  1231  001F                     	;# 
  1232  008C                     	;# 
  1233  008D                     	;# 
  1234  008E                     	;# 
  1235  0090                     	;# 
  1236  0091                     	;# 
  1237  0092                     	;# 
  1238  0093                     	;# 
  1239  0094                     	;# 
  1240  0095                     	;# 
  1241  0096                     	;# 
  1242  0097                     	;# 
  1243  0098                     	;# 
  1244  0099                     	;# 
  1245  009A                     	;# 
  1246  009B                     	;# 
  1247  009C                     	;# 
  1248  009D                     	;# 
  1249  009E                     	;# 
  1250  009F                     	;# 
  1251  010C                     	;# 
  1252  010D                     	;# 
  1253  010E                     	;# 
  1254  0111                     	;# 
  1255  0112                     	;# 
  1256  0113                     	;# 
  1257  0114                     	;# 
  1258  0115                     	;# 
  1259  0116                     	;# 
  1260  0117                     	;# 
  1261  0118                     	;# 
  1262  0119                     	;# 
  1263  011A                     	;# 
  1264  011B                     	;# 
  1265  011C                     	;# 
  1266  011D                     	;# 
  1267  018C                     	;# 
  1268  018D                     	;# 
  1269  018E                     	;# 
  1270  0191                     	;# 
  1271  0191                     	;# 
  1272  0192                     	;# 
  1273  0193                     	;# 
  1274  0193                     	;# 
  1275  0194                     	;# 
  1276  0195                     	;# 
  1277  0196                     	;# 
  1278  0197                     	;# 
  1279  0199                     	;# 
  1280  0199                     	;# 
  1281  0199                     	;# 
  1282  019A                     	;# 
  1283  019A                     	;# 
  1284  019A                     	;# 
  1285  019B                     	;# 
  1286  019B                     	;# 
  1287  019B                     	;# 
  1288  019B                     	;# 
  1289  019B                     	;# 
  1290  019C                     	;# 
  1291  019C                     	;# 
  1292  019C                     	;# 
  1293  019D                     	;# 
  1294  019D                     	;# 
  1295  019D                     	;# 
  1296  019E                     	;# 
  1297  019E                     	;# 
  1298  019E                     	;# 
  1299  019F                     	;# 
  1300  019F                     	;# 
  1301  019F                     	;# 
  1302  019F                     	;# 
  1303  019F                     	;# 
  1304  020C                     	;# 
  1305  020D                     	;# 
  1306  020E                     	;# 
  1307  0210                     	;# 
  1308  0211                     	;# 
  1309  0211                     	;# 
  1310  0212                     	;# 
  1311  0212                     	;# 
  1312  0213                     	;# 
  1313  0213                     	;# 
  1314  0214                     	;# 
  1315  0214                     	;# 
  1316  0215                     	;# 
  1317  0215                     	;# 
  1318  0215                     	;# 
  1319  0215                     	;# 
  1320  0216                     	;# 
  1321  0216                     	;# 
  1322  0217                     	;# 
  1323  0217                     	;# 
  1324  021B                     	;# 
  1325  021C                     	;# 
  1326  021D                     	;# 
  1327  021E                     	;# 
  1328  021F                     	;# 
  1329  028C                     	;# 
  1330  028D                     	;# 
  1331  028E                     	;# 
  1332  0291                     	;# 
  1333  0291                     	;# 
  1334  0292                     	;# 
  1335  0293                     	;# 
  1336  0294                     	;# 
  1337  0295                     	;# 
  1338  0295                     	;# 
  1339  0296                     	;# 
  1340  0297                     	;# 
  1341  0298                     	;# 
  1342  0299                     	;# 
  1343  0299                     	;# 
  1344  029A                     	;# 
  1345  029B                     	;# 
  1346  029C                     	;# 
  1347  029E                     	;# 
  1348  029F                     	;# 
  1349  030C                     	;# 
  1350  030D                     	;# 
  1351  030E                     	;# 
  1352  0315                     	;# 
  1353  0316                     	;# 
  1354  0317                     	;# 
  1355  0318                     	;# 
  1356  0319                     	;# 
  1357  031B                     	;# 
  1358  031C                     	;# 
  1359  031D                     	;# 
  1360  031E                     	;# 
  1361  031F                     	;# 
  1362  038C                     	;# 
  1363  038D                     	;# 
  1364  038E                     	;# 
  1365  0390                     	;# 
  1366  0391                     	;# 
  1367  0392                     	;# 
  1368  0393                     	;# 
  1369  0394                     	;# 
  1370  0395                     	;# 
  1371  0396                     	;# 
  1372  0397                     	;# 
  1373  0398                     	;# 
  1374  0399                     	;# 
  1375  039D                     	;# 
  1376  039E                     	;# 
  1377  039F                     	;# 
  1378  040D                     	;# 
  1379  040F                     	;# 
  1380  040F                     	;# 
  1381  0410                     	;# 
  1382  0411                     	;# 
  1383  0412                     	;# 
  1384  0413                     	;# 
  1385  0413                     	;# 
  1386  0414                     	;# 
  1387  0414                     	;# 
  1388  0415                     	;# 
  1389  0416                     	;# 
  1390  0417                     	;# 
  1391  0418                     	;# 
  1392  041A                     	;# 
  1393  041A                     	;# 
  1394  041B                     	;# 
  1395  041B                     	;# 
  1396  041C                     	;# 
  1397  041D                     	;# 
  1398  041E                     	;# 
  1399  041F                     	;# 
  1400  048E                     	;# 
  1401  048E                     	;# 
  1402  048F                     	;# 
  1403  0490                     	;# 
  1404  0491                     	;# 
  1405  0492                     	;# 
  1406  0493                     	;# 
  1407  0493                     	;# 
  1408  0494                     	;# 
  1409  0494                     	;# 
  1410  0495                     	;# 
  1411  0496                     	;# 
  1412  0497                     	;# 
  1413  0498                     	;# 
  1414  049A                     	;# 
  1415  049A                     	;# 
  1416  049B                     	;# 
  1417  049B                     	;# 
  1418  049C                     	;# 
  1419  049D                     	;# 
  1420  049E                     	;# 
  1421  049F                     	;# 
  1422  050F                     	;# 
  1423  0510                     	;# 
  1424  0511                     	;# 
  1425  0512                     	;# 
  1426  0513                     	;# 
  1427  0514                     	;# 
  1428  0515                     	;# 
  1429  0516                     	;# 
  1430  0517                     	;# 
  1431  0518                     	;# 
  1432  0519                     	;# 
  1433  051A                     	;# 
  1434  058D                     	;# 
  1435  058E                     	;# 
  1436  058F                     	;# 
  1437  058F                     	;# 
  1438  058F                     	;# 
  1439  0590                     	;# 
  1440  0590                     	;# 
  1441  0591                     	;# 
  1442  0592                     	;# 
  1443  0592                     	;# 
  1444  0592                     	;# 
  1445  0593                     	;# 
  1446  0593                     	;# 
  1447  0594                     	;# 
  1448  0595                     	;# 
  1449  0595                     	;# 
  1450  0596                     	;# 
  1451  0597                     	;# 
  1452  0597                     	;# 
  1453  0598                     	;# 
  1454  0599                     	;# 
  1455  0599                     	;# 
  1456  0599                     	;# 
  1457  059A                     	;# 
  1458  059A                     	;# 
  1459  059E                     	;# 
  1460  059F                     	;# 
  1461  059F                     	;# 
  1462  0614                     	;# 
  1463  0614                     	;# 
  1464  0615                     	;# 
  1465  0616                     	;# 
  1466  0617                     	;# 
  1467  0617                     	;# 
  1468  0618                     	;# 
  1469  0619                     	;# 
  1470  061A                     	;# 
  1471  061A                     	;# 
  1472  061B                     	;# 
  1473  061C                     	;# 
  1474  068D                     	;# 
  1475  068E                     	;# 
  1476  068F                     	;# 
  1477  0690                     	;# 
  1478  0691                     	;# 
  1479  0692                     	;# 
  1480  0693                     	;# 
  1481  0694                     	;# 
  1482  0695                     	;# 
  1483  0696                     	;# 
  1484  0697                     	;# 
  1485  0698                     	;# 
  1486  0699                     	;# 
  1487  069A                     	;# 
  1488  069B                     	;# 
  1489  069C                     	;# 
  1490  069D                     	;# 
  1491  069E                     	;# 
  1492  069F                     	;# 
  1493  070D                     	;# 
  1494  070E                     	;# 
  1495  070F                     	;# 
  1496  0710                     	;# 
  1497  0711                     	;# 
  1498  0712                     	;# 
  1499  0713                     	;# 
  1500  0714                     	;# 
  1501  0715                     	;# 
  1502  0716                     	;# 
  1503  0717                     	;# 
  1504  0718                     	;# 
  1505  0719                     	;# 
  1506  071A                     	;# 
  1507  071B                     	;# 
  1508  071C                     	;# 
  1509  071D                     	;# 
  1510  071E                     	;# 
  1511  071F                     	;# 
  1512  078E                     	;# 
  1513  078F                     	;# 
  1514  0790                     	;# 
  1515  0791                     	;# 
  1516  0792                     	;# 
  1517  0793                     	;# 
  1518  0794                     	;# 
  1519  0795                     	;# 
  1520  0796                     	;# 
  1521  0797                     	;# 
  1522  0798                     	;# 
  1523  0799                     	;# 
  1524  079A                     	;# 
  1525  079B                     	;# 
  1526  079C                     	;# 
  1527  079D                     	;# 
  1528  079E                     	;# 
  1529  079F                     	;# 
  1530  080D                     	;# 
  1531  080E                     	;# 
  1532  080F                     	;# 
  1533  0810                     	;# 
  1534  0811                     	;# 
  1535  0812                     	;# 
  1536  0813                     	;# 
  1537  0814                     	;# 
  1538  0815                     	;# 
  1539  0816                     	;# 
  1540  0817                     	;# 
  1541  0818                     	;# 
  1542  0819                     	;# 
  1543  081A                     	;# 
  1544  081B                     	;# 
  1545  081C                     	;# 
  1546  081D                     	;# 
  1547  081E                     	;# 
  1548  081F                     	;# 
  1549  090C                     	;# 
  1550  090D                     	;# 
  1551  090E                     	;# 
  1552  090F                     	;# 
  1553  0910                     	;# 
  1554  0911                     	;# 
  1555  0912                     	;# 
  1556  0913                     	;# 
  1557  0914                     	;# 
  1558  0915                     	;# 
  1559  0916                     	;# 
  1560  0917                     	;# 
  1561  0D8E                     	;# 
  1562  0D8F                     	;# 
  1563  0D90                     	;# 
  1564  0D91                     	;# 
  1565  0D91                     	;# 
  1566  0D92                     	;# 
  1567  0D93                     	;# 
  1568  0D93                     	;# 
  1569  0D94                     	;# 
  1570  0D95                     	;# 
  1571  0D95                     	;# 
  1572  0D96                     	;# 
  1573  0D97                     	;# 
  1574  0D97                     	;# 
  1575  0D98                     	;# 
  1576  0D99                     	;# 
  1577  0D99                     	;# 
  1578  0D9A                     	;# 
  1579  0D9B                     	;# 
  1580  0D9C                     	;# 
  1581  0D9C                     	;# 
  1582  0D9D                     	;# 
  1583  0D9D                     	;# 
  1584  0D9E                     	;# 
  1585  0D9F                     	;# 
  1586  0DA0                     	;# 
  1587  0DA1                     	;# 
  1588  0DA1                     	;# 
  1589  0DA2                     	;# 
  1590  0DA3                     	;# 
  1591  0DA3                     	;# 
  1592  0DA4                     	;# 
  1593  0DA5                     	;# 
  1594  0DA5                     	;# 
  1595  0DA6                     	;# 
  1596  0DA7                     	;# 
  1597  0DA7                     	;# 
  1598  0DA8                     	;# 
  1599  0DA9                     	;# 
  1600  0DA9                     	;# 
  1601  0DAA                     	;# 
  1602  0DAB                     	;# 
  1603  0DAC                     	;# 
  1604  0DAC                     	;# 
  1605  0DAD                     	;# 
  1606  0DAD                     	;# 
  1607  0DAE                     	;# 
  1608  0DAF                     	;# 
  1609  0DB0                     	;# 
  1610  0DB1                     	;# 
  1611  0DB1                     	;# 
  1612  0DB2                     	;# 
  1613  0DB3                     	;# 
  1614  0DB3                     	;# 
  1615  0DB4                     	;# 
  1616  0DB5                     	;# 
  1617  0DB5                     	;# 
  1618  0DB6                     	;# 
  1619  0DB7                     	;# 
  1620  0DB7                     	;# 
  1621  0DB8                     	;# 
  1622  0DB9                     	;# 
  1623  0DB9                     	;# 
  1624  0DBA                     	;# 
  1625  0DBB                     	;# 
  1626  0DBC                     	;# 
  1627  0DBC                     	;# 
  1628  0DBD                     	;# 
  1629  0DBD                     	;# 
  1630  0DBE                     	;# 
  1631  0DBF                     	;# 
  1632  0DC0                     	;# 
  1633  0E0C                     	;# 
  1634  0E0D                     	;# 
  1635  0E0E                     	;# 
  1636  0E0F                     	;# 
  1637  0E10                     	;# 
  1638  0E11                     	;# 
  1639  0E12                     	;# 
  1640  0E13                     	;# 
  1641  0E14                     	;# 
  1642  0E15                     	;# 
  1643  0E15                     	;# 
  1644  0E15                     	;# 
  1645  0E16                     	;# 
  1646  0E16                     	;# 
  1647  0E16                     	;# 
  1648  0E17                     	;# 
  1649  0E17                     	;# 
  1650  0E17                     	;# 
  1651  0E18                     	;# 
  1652  0E18                     	;# 
  1653  0E18                     	;# 
  1654  0E19                     	;# 
  1655  0E1A                     	;# 
  1656  0E1B                     	;# 
  1657  0E1D                     	;# 
  1658  0E1E                     	;# 
  1659  0E1F                     	;# 
  1660  0E21                     	;# 
  1661  0E22                     	;# 
  1662  0E23                     	;# 
  1663  0E24                     	;# 
  1664  0E25                     	;# 
  1665  0E26                     	;# 
  1666  0E27                     	;# 
  1667  0E28                     	;# 
  1668  0E29                     	;# 
  1669  0E2D                     	;# 
  1670  0E2E                     	;# 
  1671  0E2F                     	;# 
  1672  0E30                     	;# 
  1673  0E31                     	;# 
  1674  0E32                     	;# 
  1675  0E35                     	;# 
  1676  0E36                     	;# 
  1677  0E37                     	;# 
  1678  0E38                     	;# 
  1679  0E39                     	;# 
  1680  0E3A                     	;# 
  1681  0E3B                     	;# 
  1682  0E3C                     	;# 
  1683  0E3D                     	;# 
  1684  0E3E                     	;# 
  1685  0E90                     	;# 
  1686  0E91                     	;# 
  1687  0E92                     	;# 
  1688  0E93                     	;# 
  1689  0E94                     	;# 
  1690  0E95                     	;# 
  1691  0E96                     	;# 
  1692  0E97                     	;# 
  1693  0E98                     	;# 
  1694  0E99                     	;# 
  1695  0E9A                     	;# 
  1696  0E9B                     	;# 
  1697  0E9C                     	;# 
  1698  0E9D                     	;# 
  1699  0E9E                     	;# 
  1700  0E9F                     	;# 
  1701  0EA0                     	;# 
  1702  0EA1                     	;# 
  1703  0EA2                     	;# 
  1704  0EA3                     	;# 
  1705  0EA4                     	;# 
  1706  0EA5                     	;# 
  1707  0EA6                     	;# 
  1708  0EA7                     	;# 
  1709  0F0F                     	;# 
  1710  0F10                     	;# 
  1711  0F11                     	;# 
  1712  0F12                     	;# 
  1713  0F13                     	;# 
  1714  0F14                     	;# 
  1715  0F15                     	;# 
  1716  0F16                     	;# 
  1717  0F17                     	;# 
  1718  0F18                     	;# 
  1719  0F19                     	;# 
  1720  0F1A                     	;# 
  1721  0F1B                     	;# 
  1722  0F1C                     	;# 
  1723  0F1D                     	;# 
  1724  0F1E                     	;# 
  1725  0F1F                     	;# 
  1726  0F20                     	;# 
  1727  0F21                     	;# 
  1728  0F22                     	;# 
  1729  0F23                     	;# 
  1730  0F24                     	;# 
  1731  0F25                     	;# 
  1732  0F26                     	;# 
  1733  0F27                     	;# 
  1734  0F28                     	;# 
  1735  0F29                     	;# 
  1736  0F2A                     	;# 
  1737  0F2B                     	;# 
  1738  0F2C                     	;# 
  1739  0F2D                     	;# 
  1740  0F2E                     	;# 
  1741  0F2F                     	;# 
  1742  0F30                     	;# 
  1743  0F31                     	;# 
  1744  0F32                     	;# 
  1745  0F33                     	;# 
  1746  0F34                     	;# 
  1747  0F35                     	;# 
  1748  0F36                     	;# 
  1749  0F37                     	;# 
  1750  0FE4                     	;# 
  1751  0FE5                     	;# 
  1752  0FE6                     	;# 
  1753  0FE7                     	;# 
  1754  0FE8                     	;# 
  1755  0FE9                     	;# 
  1756  0FEA                     	;# 
  1757  0FEB                     	;# 
  1758  0FED                     	;# 
  1759  0FEE                     	;# 
  1760  0FEF                     	;# 
  1761  0000                     	;# 
  1762  0001                     	;# 
  1763  0002                     	;# 
  1764  0003                     	;# 
  1765  0004                     	;# 
  1766  0005                     	;# 
  1767  0006                     	;# 
  1768  0007                     	;# 
  1769  0008                     	;# 
  1770  0009                     	;# 
  1771  000A                     	;# 
  1772  000B                     	;# 
  1773  000C                     	;# 
  1774  000D                     	;# 
  1775  000E                     	;# 
  1776  0010                     	;# 
  1777  0011                     	;# 
  1778  0012                     	;# 
  1779  0013                     	;# 
  1780  0014                     	;# 
  1781  0015                     	;# 
  1782  0016                     	;# 
  1783  0017                     	;# 
  1784  0018                     	;# 
  1785  0018                     	;# 
  1786  0019                     	;# 
  1787  001A                     	;# 
  1788  001B                     	;# 
  1789  001C                     	;# 
  1790  001C                     	;# 
  1791  001D                     	;# 
  1792  001E                     	;# 
  1793  001F                     	;# 
  1794  008C                     	;# 
  1795  008D                     	;# 
  1796  008E                     	;# 
  1797  0090                     	;# 
  1798  0091                     	;# 
  1799  0092                     	;# 
  1800  0093                     	;# 
  1801  0094                     	;# 
  1802  0095                     	;# 
  1803  0096                     	;# 
  1804  0097                     	;# 
  1805  0098                     	;# 
  1806  0099                     	;# 
  1807  009A                     	;# 
  1808  009B                     	;# 
  1809  009C                     	;# 
  1810  009D                     	;# 
  1811  009E                     	;# 
  1812  009F                     	;# 
  1813  010C                     	;# 
  1814  010D                     	;# 
  1815  010E                     	;# 
  1816  0111                     	;# 
  1817  0112                     	;# 
  1818  0113                     	;# 
  1819  0114                     	;# 
  1820  0115                     	;# 
  1821  0116                     	;# 
  1822  0117                     	;# 
  1823  0118                     	;# 
  1824  0119                     	;# 
  1825  011A                     	;# 
  1826  011B                     	;# 
  1827  011C                     	;# 
  1828  011D                     	;# 
  1829  018C                     	;# 
  1830  018D                     	;# 
  1831  018E                     	;# 
  1832  0191                     	;# 
  1833  0191                     	;# 
  1834  0192                     	;# 
  1835  0193                     	;# 
  1836  0193                     	;# 
  1837  0194                     	;# 
  1838  0195                     	;# 
  1839  0196                     	;# 
  1840  0197                     	;# 
  1841  0199                     	;# 
  1842  0199                     	;# 
  1843  0199                     	;# 
  1844  019A                     	;# 
  1845  019A                     	;# 
  1846  019A                     	;# 
  1847  019B                     	;# 
  1848  019B                     	;# 
  1849  019B                     	;# 
  1850  019B                     	;# 
  1851  019B                     	;# 
  1852  019C                     	;# 
  1853  019C                     	;# 
  1854  019C                     	;# 
  1855  019D                     	;# 
  1856  019D                     	;# 
  1857  019D                     	;# 
  1858  019E                     	;# 
  1859  019E                     	;# 
  1860  019E                     	;# 
  1861  019F                     	;# 
  1862  019F                     	;# 
  1863  019F                     	;# 
  1864  019F                     	;# 
  1865  019F                     	;# 
  1866  020C                     	;# 
  1867  020D                     	;# 
  1868  020E                     	;# 
  1869  0210                     	;# 
  1870  0211                     	;# 
  1871  0211                     	;# 
  1872  0212                     	;# 
  1873  0212                     	;# 
  1874  0213                     	;# 
  1875  0213                     	;# 
  1876  0214                     	;# 
  1877  0214                     	;# 
  1878  0215                     	;# 
  1879  0215                     	;# 
  1880  0215                     	;# 
  1881  0215                     	;# 
  1882  0216                     	;# 
  1883  0216                     	;# 
  1884  0217                     	;# 
  1885  0217                     	;# 
  1886  021B                     	;# 
  1887  021C                     	;# 
  1888  021D                     	;# 
  1889  021E                     	;# 
  1890  021F                     	;# 
  1891  028C                     	;# 
  1892  028D                     	;# 
  1893  028E                     	;# 
  1894  0291                     	;# 
  1895  0291                     	;# 
  1896  0292                     	;# 
  1897  0293                     	;# 
  1898  0294                     	;# 
  1899  0295                     	;# 
  1900  0295                     	;# 
  1901  0296                     	;# 
  1902  0297                     	;# 
  1903  0298                     	;# 
  1904  0299                     	;# 
  1905  0299                     	;# 
  1906  029A                     	;# 
  1907  029B                     	;# 
  1908  029C                     	;# 
  1909  029E                     	;# 
  1910  029F                     	;# 
  1911  030C                     	;# 
  1912  030D                     	;# 
  1913  030E                     	;# 
  1914  0315                     	;# 
  1915  0316                     	;# 
  1916  0317                     	;# 
  1917  0318                     	;# 
  1918  0319                     	;# 
  1919  031B                     	;# 
  1920  031C                     	;# 
  1921  031D                     	;# 
  1922  031E                     	;# 
  1923  031F                     	;# 
  1924  038C                     	;# 
  1925  038D                     	;# 
  1926  038E                     	;# 
  1927  0390                     	;# 
  1928  0391                     	;# 
  1929  0392                     	;# 
  1930  0393                     	;# 
  1931  0394                     	;# 
  1932  0395                     	;# 
  1933  0396                     	;# 
  1934  0397                     	;# 
  1935  0398                     	;# 
  1936  0399                     	;# 
  1937  039D                     	;# 
  1938  039E                     	;# 
  1939  039F                     	;# 
  1940  040D                     	;# 
  1941  040F                     	;# 
  1942  040F                     	;# 
  1943  0410                     	;# 
  1944  0411                     	;# 
  1945  0412                     	;# 
  1946  0413                     	;# 
  1947  0413                     	;# 
  1948  0414                     	;# 
  1949  0414                     	;# 
  1950  0415                     	;# 
  1951  0416                     	;# 
  1952  0417                     	;# 
  1953  0418                     	;# 
  1954  041A                     	;# 
  1955  041A                     	;# 
  1956  041B                     	;# 
  1957  041B                     	;# 
  1958  041C                     	;# 
  1959  041D                     	;# 
  1960  041E                     	;# 
  1961  041F                     	;# 
  1962  048E                     	;# 
  1963  048E                     	;# 
  1964  048F                     	;# 
  1965  0490                     	;# 
  1966  0491                     	;# 
  1967  0492                     	;# 
  1968  0493                     	;# 
  1969  0493                     	;# 
  1970  0494                     	;# 
  1971  0494                     	;# 
  1972  0495                     	;# 
  1973  0496                     	;# 
  1974  0497                     	;# 
  1975  0498                     	;# 
  1976  049A                     	;# 
  1977  049A                     	;# 
  1978  049B                     	;# 
  1979  049B                     	;# 
  1980  049C                     	;# 
  1981  049D                     	;# 
  1982  049E                     	;# 
  1983  049F                     	;# 
  1984  050F                     	;# 
  1985  0510                     	;# 
  1986  0511                     	;# 
  1987  0512                     	;# 
  1988  0513                     	;# 
  1989  0514                     	;# 
  1990  0515                     	;# 
  1991  0516                     	;# 
  1992  0517                     	;# 
  1993  0518                     	;# 
  1994  0519                     	;# 
  1995  051A                     	;# 
  1996  058D                     	;# 
  1997  058E                     	;# 
  1998  058F                     	;# 
  1999  058F                     	;# 
  2000  058F                     	;# 
  2001  0590                     	;# 
  2002  0590                     	;# 
  2003  0591                     	;# 
  2004  0592                     	;# 
  2005  0592                     	;# 
  2006  0592                     	;# 
  2007  0593                     	;# 
  2008  0593                     	;# 
  2009  0594                     	;# 
  2010  0595                     	;# 
  2011  0595                     	;# 
  2012  0596                     	;# 
  2013  0597                     	;# 
  2014  0597                     	;# 
  2015  0598                     	;# 
  2016  0599                     	;# 
  2017  0599                     	;# 
  2018  0599                     	;# 
  2019  059A                     	;# 
  2020  059A                     	;# 
  2021  059E                     	;# 
  2022  059F                     	;# 
  2023  059F                     	;# 
  2024  0614                     	;# 
  2025  0614                     	;# 
  2026  0615                     	;# 
  2027  0616                     	;# 
  2028  0617                     	;# 
  2029  0617                     	;# 
  2030  0618                     	;# 
  2031  0619                     	;# 
  2032  061A                     	;# 
  2033  061A                     	;# 
  2034  061B                     	;# 
  2035  061C                     	;# 
  2036  068D                     	;# 
  2037  068E                     	;# 
  2038  068F                     	;# 
  2039  0690                     	;# 
  2040  0691                     	;# 
  2041  0692                     	;# 
  2042  0693                     	;# 
  2043  0694                     	;# 
  2044  0695                     	;# 
  2045  0696                     	;# 
  2046  0697                     	;# 
  2047  0698                     	;# 
  2048  0699                     	;# 
  2049  069A                     	;# 
  2050  069B                     	;# 
  2051  069C                     	;# 
  2052  069D                     	;# 
  2053  069E                     	;# 
  2054  069F                     	;# 
  2055  070D                     	;# 
  2056  070E                     	;# 
  2057  070F                     	;# 
  2058  0710                     	;# 
  2059  0711                     	;# 
  2060  0712                     	;# 
  2061  0713                     	;# 
  2062  0714                     	;# 
  2063  0715                     	;# 
  2064  0716                     	;# 
  2065  0717                     	;# 
  2066  0718                     	;# 
  2067  0719                     	;# 
  2068  071A                     	;# 
  2069  071B                     	;# 
  2070  071C                     	;# 
  2071  071D                     	;# 
  2072  071E                     	;# 
  2073  071F                     	;# 
  2074  078E                     	;# 
  2075  078F                     	;# 
  2076  0790                     	;# 
  2077  0791                     	;# 
  2078  0792                     	;# 
  2079  0793                     	;# 
  2080  0794                     	;# 
  2081  0795                     	;# 
  2082  0796                     	;# 
  2083  0797                     	;# 
  2084  0798                     	;# 
  2085  0799                     	;# 
  2086  079A                     	;# 
  2087  079B                     	;# 
  2088  079C                     	;# 
  2089  079D                     	;# 
  2090  079E                     	;# 
  2091  079F                     	;# 
  2092  080D                     	;# 
  2093  080E                     	;# 
  2094  080F                     	;# 
  2095  0810                     	;# 
  2096  0811                     	;# 
  2097  0812                     	;# 
  2098  0813                     	;# 
  2099  0814                     	;# 
  2100  0815                     	;# 
  2101  0816                     	;# 
  2102  0817                     	;# 
  2103  0818                     	;# 
  2104  0819                     	;# 
  2105  081A                     	;# 
  2106  081B                     	;# 
  2107  081C                     	;# 
  2108  081D                     	;# 
  2109  081E                     	;# 
  2110  081F                     	;# 
  2111  090C                     	;# 
  2112  090D                     	;# 
  2113  090E                     	;# 
  2114  090F                     	;# 
  2115  0910                     	;# 
  2116  0911                     	;# 
  2117  0912                     	;# 
  2118  0913                     	;# 
  2119  0914                     	;# 
  2120  0915                     	;# 
  2121  0916                     	;# 
  2122  0917                     	;# 
  2123  0D8E                     	;# 
  2124  0D8F                     	;# 
  2125  0D90                     	;# 
  2126  0D91                     	;# 
  2127  0D91                     	;# 
  2128  0D92                     	;# 
  2129  0D93                     	;# 
  2130  0D93                     	;# 
  2131  0D94                     	;# 
  2132  0D95                     	;# 
  2133  0D95                     	;# 
  2134  0D96                     	;# 
  2135  0D97                     	;# 
  2136  0D97                     	;# 
  2137  0D98                     	;# 
  2138  0D99                     	;# 
  2139  0D99                     	;# 
  2140  0D9A                     	;# 
  2141  0D9B                     	;# 
  2142  0D9C                     	;# 
  2143  0D9C                     	;# 
  2144  0D9D                     	;# 
  2145  0D9D                     	;# 
  2146  0D9E                     	;# 
  2147  0D9F                     	;# 
  2148  0DA0                     	;# 
  2149  0DA1                     	;# 
  2150  0DA1                     	;# 
  2151  0DA2                     	;# 
  2152  0DA3                     	;# 
  2153  0DA3                     	;# 
  2154  0DA4                     	;# 
  2155  0DA5                     	;# 
  2156  0DA5                     	;# 
  2157  0DA6                     	;# 
  2158  0DA7                     	;# 
  2159  0DA7                     	;# 
  2160  0DA8                     	;# 
  2161  0DA9                     	;# 
  2162  0DA9                     	;# 
  2163  0DAA                     	;# 
  2164  0DAB                     	;# 
  2165  0DAC                     	;# 
  2166  0DAC                     	;# 
  2167  0DAD                     	;# 
  2168  0DAD                     	;# 
  2169  0DAE                     	;# 
  2170  0DAF                     	;# 
  2171  0DB0                     	;# 
  2172  0DB1                     	;# 
  2173  0DB1                     	;# 
  2174  0DB2                     	;# 
  2175  0DB3                     	;# 
  2176  0DB3                     	;# 
  2177  0DB4                     	;# 
  2178  0DB5                     	;# 
  2179  0DB5                     	;# 
  2180  0DB6                     	;# 
  2181  0DB7                     	;# 
  2182  0DB7                     	;# 
  2183  0DB8                     	;# 
  2184  0DB9                     	;# 
  2185  0DB9                     	;# 
  2186  0DBA                     	;# 
  2187  0DBB                     	;# 
  2188  0DBC                     	;# 
  2189  0DBC                     	;# 
  2190  0DBD                     	;# 
  2191  0DBD                     	;# 
  2192  0DBE                     	;# 
  2193  0DBF                     	;# 
  2194  0DC0                     	;# 
  2195  0E0C                     	;# 
  2196  0E0D                     	;# 
  2197  0E0E                     	;# 
  2198  0E0F                     	;# 
  2199  0E10                     	;# 
  2200  0E11                     	;# 
  2201  0E12                     	;# 
  2202  0E13                     	;# 
  2203  0E14                     	;# 
  2204  0E15                     	;# 
  2205  0E15                     	;# 
  2206  0E15                     	;# 
  2207  0E16                     	;# 
  2208  0E16                     	;# 
  2209  0E16                     	;# 
  2210  0E17                     	;# 
  2211  0E17                     	;# 
  2212  0E17                     	;# 
  2213  0E18                     	;# 
  2214  0E18                     	;# 
  2215  0E18                     	;# 
  2216  0E19                     	;# 
  2217  0E1A                     	;# 
  2218  0E1B                     	;# 
  2219  0E1D                     	;# 
  2220  0E1E                     	;# 
  2221  0E1F                     	;# 
  2222  0E21                     	;# 
  2223  0E22                     	;# 
  2224  0E23                     	;# 
  2225  0E24                     	;# 
  2226  0E25                     	;# 
  2227  0E26                     	;# 
  2228  0E27                     	;# 
  2229  0E28                     	;# 
  2230  0E29                     	;# 
  2231  0E2D                     	;# 
  2232  0E2E                     	;# 
  2233  0E2F                     	;# 
  2234  0E30                     	;# 
  2235  0E31                     	;# 
  2236  0E32                     	;# 
  2237  0E35                     	;# 
  2238  0E36                     	;# 
  2239  0E37                     	;# 
  2240  0E38                     	;# 
  2241  0E39                     	;# 
  2242  0E3A                     	;# 
  2243  0E3B                     	;# 
  2244  0E3C                     	;# 
  2245  0E3D                     	;# 
  2246  0E3E                     	;# 
  2247  0E90                     	;# 
  2248  0E91                     	;# 
  2249  0E92                     	;# 
  2250  0E93                     	;# 
  2251  0E94                     	;# 
  2252  0E95                     	;# 
  2253  0E96                     	;# 
  2254  0E97                     	;# 
  2255  0E98                     	;# 
  2256  0E99                     	;# 
  2257  0E9A                     	;# 
  2258  0E9B                     	;# 
  2259  0E9C                     	;# 
  2260  0E9D                     	;# 
  2261  0E9E                     	;# 
  2262  0E9F                     	;# 
  2263  0EA0                     	;# 
  2264  0EA1                     	;# 
  2265  0EA2                     	;# 
  2266  0EA3                     	;# 
  2267  0EA4                     	;# 
  2268  0EA5                     	;# 
  2269  0EA6                     	;# 
  2270  0EA7                     	;# 
  2271  0F0F                     	;# 
  2272  0F10                     	;# 
  2273  0F11                     	;# 
  2274  0F12                     	;# 
  2275  0F13                     	;# 
  2276  0F14                     	;# 
  2277  0F15                     	;# 
  2278  0F16                     	;# 
  2279  0F17                     	;# 
  2280  0F18                     	;# 
  2281  0F19                     	;# 
  2282  0F1A                     	;# 
  2283  0F1B                     	;# 
  2284  0F1C                     	;# 
  2285  0F1D                     	;# 
  2286  0F1E                     	;# 
  2287  0F1F                     	;# 
  2288  0F20                     	;# 
  2289  0F21                     	;# 
  2290  0F22                     	;# 
  2291  0F23                     	;# 
  2292  0F24                     	;# 
  2293  0F25                     	;# 
  2294  0F26                     	;# 
  2295  0F27                     	;# 
  2296  0F28                     	;# 
  2297  0F29                     	;# 
  2298  0F2A                     	;# 
  2299  0F2B                     	;# 
  2300  0F2C                     	;# 
  2301  0F2D                     	;# 
  2302  0F2E                     	;# 
  2303  0F2F                     	;# 
  2304  0F30                     	;# 
  2305  0F31                     	;# 
  2306  0F32                     	;# 
  2307  0F33                     	;# 
  2308  0F34                     	;# 
  2309  0F35                     	;# 
  2310  0F36                     	;# 
  2311  0F37                     	;# 
  2312  0FE4                     	;# 
  2313  0FE5                     	;# 
  2314  0FE6                     	;# 
  2315  0FE7                     	;# 
  2316  0FE8                     	;# 
  2317  0FE9                     	;# 
  2318  0FEA                     	;# 
  2319  0FEB                     	;# 
  2320  0FED                     	;# 
  2321  0FEE                     	;# 
  2322  0FEF                     	;# 
  2323  0000                     	;# 
  2324  0001                     	;# 
  2325  0002                     	;# 
  2326  0003                     	;# 
  2327  0004                     	;# 
  2328  0005                     	;# 
  2329  0006                     	;# 
  2330  0007                     	;# 
  2331  0008                     	;# 
  2332  0009                     	;# 
  2333  000A                     	;# 
  2334  000B                     	;# 
  2335  000C                     	;# 
  2336  000D                     	;# 
  2337  000E                     	;# 
  2338  0010                     	;# 
  2339  0011                     	;# 
  2340  0012                     	;# 
  2341  0013                     	;# 
  2342  0014                     	;# 
  2343  0015                     	;# 
  2344  0016                     	;# 
  2345  0017                     	;# 
  2346  0018                     	;# 
  2347  0018                     	;# 
  2348  0019                     	;# 
  2349  001A                     	;# 
  2350  001B                     	;# 
  2351  001C                     	;# 
  2352  001C                     	;# 
  2353  001D                     	;# 
  2354  001E                     	;# 
  2355  001F                     	;# 
  2356  008C                     	;# 
  2357  008D                     	;# 
  2358  008E                     	;# 
  2359  0090                     	;# 
  2360  0091                     	;# 
  2361  0092                     	;# 
  2362  0093                     	;# 
  2363  0094                     	;# 
  2364  0095                     	;# 
  2365  0096                     	;# 
  2366  0097                     	;# 
  2367  0098                     	;# 
  2368  0099                     	;# 
  2369  009A                     	;# 
  2370  009B                     	;# 
  2371  009C                     	;# 
  2372  009D                     	;# 
  2373  009E                     	;# 
  2374  009F                     	;# 
  2375  010C                     	;# 
  2376  010D                     	;# 
  2377  010E                     	;# 
  2378  0111                     	;# 
  2379  0112                     	;# 
  2380  0113                     	;# 
  2381  0114                     	;# 
  2382  0115                     	;# 
  2383  0116                     	;# 
  2384  0117                     	;# 
  2385  0118                     	;# 
  2386  0119                     	;# 
  2387  011A                     	;# 
  2388  011B                     	;# 
  2389  011C                     	;# 
  2390  011D                     	;# 
  2391  018C                     	;# 
  2392  018D                     	;# 
  2393  018E                     	;# 
  2394  0191                     	;# 
  2395  0191                     	;# 
  2396  0192                     	;# 
  2397  0193                     	;# 
  2398  0193                     	;# 
  2399  0194                     	;# 
  2400  0195                     	;# 
  2401  0196                     	;# 
  2402  0197                     	;# 
  2403  0199                     	;# 
  2404  0199                     	;# 
  2405  0199                     	;# 
  2406  019A                     	;# 
  2407  019A                     	;# 
  2408  019A                     	;# 
  2409  019B                     	;# 
  2410  019B                     	;# 
  2411  019B                     	;# 
  2412  019B                     	;# 
  2413  019B                     	;# 
  2414  019C                     	;# 
  2415  019C                     	;# 
  2416  019C                     	;# 
  2417  019D                     	;# 
  2418  019D                     	;# 
  2419  019D                     	;# 
  2420  019E                     	;# 
  2421  019E                     	;# 
  2422  019E                     	;# 
  2423  019F                     	;# 
  2424  019F                     	;# 
  2425  019F                     	;# 
  2426  019F                     	;# 
  2427  019F                     	;# 
  2428  020C                     	;# 
  2429  020D                     	;# 
  2430  020E                     	;# 
  2431  0210                     	;# 
  2432  0211                     	;# 
  2433  0211                     	;# 
  2434  0212                     	;# 
  2435  0212                     	;# 
  2436  0213                     	;# 
  2437  0213                     	;# 
  2438  0214                     	;# 
  2439  0214                     	;# 
  2440  0215                     	;# 
  2441  0215                     	;# 
  2442  0215                     	;# 
  2443  0215                     	;# 
  2444  0216                     	;# 
  2445  0216                     	;# 
  2446  0217                     	;# 
  2447  0217                     	;# 
  2448  021B                     	;# 
  2449  021C                     	;# 
  2450  021D                     	;# 
  2451  021E                     	;# 
  2452  021F                     	;# 
  2453  028C                     	;# 
  2454  028D                     	;# 
  2455  028E                     	;# 
  2456  0291                     	;# 
  2457  0291                     	;# 
  2458  0292                     	;# 
  2459  0293                     	;# 
  2460  0294                     	;# 
  2461  0295                     	;# 
  2462  0295                     	;# 
  2463  0296                     	;# 
  2464  0297                     	;# 
  2465  0298                     	;# 
  2466  0299                     	;# 
  2467  0299                     	;# 
  2468  029A                     	;# 
  2469  029B                     	;# 
  2470  029C                     	;# 
  2471  029E                     	;# 
  2472  029F                     	;# 
  2473  030C                     	;# 
  2474  030D                     	;# 
  2475  030E                     	;# 
  2476  0315                     	;# 
  2477  0316                     	;# 
  2478  0317                     	;# 
  2479  0318                     	;# 
  2480  0319                     	;# 
  2481  031B                     	;# 
  2482  031C                     	;# 
  2483  031D                     	;# 
  2484  031E                     	;# 
  2485  031F                     	;# 
  2486  038C                     	;# 
  2487  038D                     	;# 
  2488  038E                     	;# 
  2489  0390                     	;# 
  2490  0391                     	;# 
  2491  0392                     	;# 
  2492  0393                     	;# 
  2493  0394                     	;# 
  2494  0395                     	;# 
  2495  0396                     	;# 
  2496  0397                     	;# 
  2497  0398                     	;# 
  2498  0399                     	;# 
  2499  039D                     	;# 
  2500  039E                     	;# 
  2501  039F                     	;# 
  2502  040D                     	;# 
  2503  040F                     	;# 
  2504  040F                     	;# 
  2505  0410                     	;# 
  2506  0411                     	;# 
  2507  0412                     	;# 
  2508  0413                     	;# 
  2509  0413                     	;# 
  2510  0414                     	;# 
  2511  0414                     	;# 
  2512  0415                     	;# 
  2513  0416                     	;# 
  2514  0417                     	;# 
  2515  0418                     	;# 
  2516  041A                     	;# 
  2517  041A                     	;# 
  2518  041B                     	;# 
  2519  041B                     	;# 
  2520  041C                     	;# 
  2521  041D                     	;# 
  2522  041E                     	;# 
  2523  041F                     	;# 
  2524  048E                     	;# 
  2525  048E                     	;# 
  2526  048F                     	;# 
  2527  0490                     	;# 
  2528  0491                     	;# 
  2529  0492                     	;# 
  2530  0493                     	;# 
  2531  0493                     	;# 
  2532  0494                     	;# 
  2533  0494                     	;# 
  2534  0495                     	;# 
  2535  0496                     	;# 
  2536  0497                     	;# 
  2537  0498                     	;# 
  2538  049A                     	;# 
  2539  049A                     	;# 
  2540  049B                     	;# 
  2541  049B                     	;# 
  2542  049C                     	;# 
  2543  049D                     	;# 
  2544  049E                     	;# 
  2545  049F                     	;# 
  2546  050F                     	;# 
  2547  0510                     	;# 
  2548  0511                     	;# 
  2549  0512                     	;# 
  2550  0513                     	;# 
  2551  0514                     	;# 
  2552  0515                     	;# 
  2553  0516                     	;# 
  2554  0517                     	;# 
  2555  0518                     	;# 
  2556  0519                     	;# 
  2557  051A                     	;# 
  2558  058D                     	;# 
  2559  058E                     	;# 
  2560  058F                     	;# 
  2561  058F                     	;# 
  2562  058F                     	;# 
  2563  0590                     	;# 
  2564  0590                     	;# 
  2565  0591                     	;# 
  2566  0592                     	;# 
  2567  0592                     	;# 
  2568  0592                     	;# 
  2569  0593                     	;# 
  2570  0593                     	;# 
  2571  0594                     	;# 
  2572  0595                     	;# 
  2573  0595                     	;# 
  2574  0596                     	;# 
  2575  0597                     	;# 
  2576  0597                     	;# 
  2577  0598                     	;# 
  2578  0599                     	;# 
  2579  0599                     	;# 
  2580  0599                     	;# 
  2581  059A                     	;# 
  2582  059A                     	;# 
  2583  059E                     	;# 
  2584  059F                     	;# 
  2585  059F                     	;# 
  2586  0614                     	;# 
  2587  0614                     	;# 
  2588  0615                     	;# 
  2589  0616                     	;# 
  2590  0617                     	;# 
  2591  0617                     	;# 
  2592  0618                     	;# 
  2593  0619                     	;# 
  2594  061A                     	;# 
  2595  061A                     	;# 
  2596  061B                     	;# 
  2597  061C                     	;# 
  2598  068D                     	;# 
  2599  068E                     	;# 
  2600  068F                     	;# 
  2601  0690                     	;# 
  2602  0691                     	;# 
  2603  0692                     	;# 
  2604  0693                     	;# 
  2605  0694                     	;# 
  2606  0695                     	;# 
  2607  0696                     	;# 
  2608  0697                     	;# 
  2609  0698                     	;# 
  2610  0699                     	;# 
  2611  069A                     	;# 
  2612  069B                     	;# 
  2613  069C                     	;# 
  2614  069D                     	;# 
  2615  069E                     	;# 
  2616  069F                     	;# 
  2617  070D                     	;# 
  2618  070E                     	;# 
  2619  070F                     	;# 
  2620  0710                     	;# 
  2621  0711                     	;# 
  2622  0712                     	;# 
  2623  0713                     	;# 
  2624  0714                     	;# 
  2625  0715                     	;# 
  2626  0716                     	;# 
  2627  0717                     	;# 
  2628  0718                     	;# 
  2629  0719                     	;# 
  2630  071A                     	;# 
  2631  071B                     	;# 
  2632  071C                     	;# 
  2633  071D                     	;# 
  2634  071E                     	;# 
  2635  071F                     	;# 
  2636  078E                     	;# 
  2637  078F                     	;# 
  2638  0790                     	;# 
  2639  0791                     	;# 
  2640  0792                     	;# 
  2641  0793                     	;# 
  2642  0794                     	;# 
  2643  0795                     	;# 
  2644  0796                     	;# 
  2645  0797                     	;# 
  2646  0798                     	;# 
  2647  0799                     	;# 
  2648  079A                     	;# 
  2649  079B                     	;# 
  2650  079C                     	;# 
  2651  079D                     	;# 
  2652  079E                     	;# 
  2653  079F                     	;# 
  2654  080D                     	;# 
  2655  080E                     	;# 
  2656  080F                     	;# 
  2657  0810                     	;# 
  2658  0811                     	;# 
  2659  0812                     	;# 
  2660  0813                     	;# 
  2661  0814                     	;# 
  2662  0815                     	;# 
  2663  0816                     	;# 
  2664  0817                     	;# 
  2665  0818                     	;# 
  2666  0819                     	;# 
  2667  081A                     	;# 
  2668  081B                     	;# 
  2669  081C                     	;# 
  2670  081D                     	;# 
  2671  081E                     	;# 
  2672  081F                     	;# 
  2673  090C                     	;# 
  2674  090D                     	;# 
  2675  090E                     	;# 
  2676  090F                     	;# 
  2677  0910                     	;# 
  2678  0911                     	;# 
  2679  0912                     	;# 
  2680  0913                     	;# 
  2681  0914                     	;# 
  2682  0915                     	;# 
  2683  0916                     	;# 
  2684  0917                     	;# 
  2685  0D8E                     	;# 
  2686  0D8F                     	;# 
  2687  0D90                     	;# 
  2688  0D91                     	;# 
  2689  0D91                     	;# 
  2690  0D92                     	;# 
  2691  0D93                     	;# 
  2692  0D93                     	;# 
  2693  0D94                     	;# 
  2694  0D95                     	;# 
  2695  0D95                     	;# 
  2696  0D96                     	;# 
  2697  0D97                     	;# 
  2698  0D97                     	;# 
  2699  0D98                     	;# 
  2700  0D99                     	;# 
  2701  0D99                     	;# 
  2702  0D9A                     	;# 
  2703  0D9B                     	;# 
  2704  0D9C                     	;# 
  2705  0D9C                     	;# 
  2706  0D9D                     	;# 
  2707  0D9D                     	;# 
  2708  0D9E                     	;# 
  2709  0D9F                     	;# 
  2710  0DA0                     	;# 
  2711  0DA1                     	;# 
  2712  0DA1                     	;# 
  2713  0DA2                     	;# 
  2714  0DA3                     	;# 
  2715  0DA3                     	;# 
  2716  0DA4                     	;# 
  2717  0DA5                     	;# 
  2718  0DA5                     	;# 
  2719  0DA6                     	;# 
  2720  0DA7                     	;# 
  2721  0DA7                     	;# 
  2722  0DA8                     	;# 
  2723  0DA9                     	;# 
  2724  0DA9                     	;# 
  2725  0DAA                     	;# 
  2726  0DAB                     	;# 
  2727  0DAC                     	;# 
  2728  0DAC                     	;# 
  2729  0DAD                     	;# 
  2730  0DAD                     	;# 
  2731  0DAE                     	;# 
  2732  0DAF                     	;# 
  2733  0DB0                     	;# 
  2734  0DB1                     	;# 
  2735  0DB1                     	;# 
  2736  0DB2                     	;# 
  2737  0DB3                     	;# 
  2738  0DB3                     	;# 
  2739  0DB4                     	;# 
  2740  0DB5                     	;# 
  2741  0DB5                     	;# 
  2742  0DB6                     	;# 
  2743  0DB7                     	;# 
  2744  0DB7                     	;# 
  2745  0DB8                     	;# 
  2746  0DB9                     	;# 
  2747  0DB9                     	;# 
  2748  0DBA                     	;# 
  2749  0DBB                     	;# 
  2750  0DBC                     	;# 
  2751  0DBC                     	;# 
  2752  0DBD                     	;# 
  2753  0DBD                     	;# 
  2754  0DBE                     	;# 
  2755  0DBF                     	;# 
  2756  0DC0                     	;# 
  2757  0E0C                     	;# 
  2758  0E0D                     	;# 
  2759  0E0E                     	;# 
  2760  0E0F                     	;# 
  2761  0E10                     	;# 
  2762  0E11                     	;# 
  2763  0E12                     	;# 
  2764  0E13                     	;# 
  2765  0E14                     	;# 
  2766  0E15                     	;# 
  2767  0E15                     	;# 
  2768  0E15                     	;# 
  2769  0E16                     	;# 
  2770  0E16                     	;# 
  2771  0E16                     	;# 
  2772  0E17                     	;# 
  2773  0E17                     	;# 
  2774  0E17                     	;# 
  2775  0E18                     	;# 
  2776  0E18                     	;# 
  2777  0E18                     	;# 
  2778  0E19                     	;# 
  2779  0E1A                     	;# 
  2780  0E1B                     	;# 
  2781  0E1D                     	;# 
  2782  0E1E                     	;# 
  2783  0E1F                     	;# 
  2784  0E21                     	;# 
  2785  0E22                     	;# 
  2786  0E23                     	;# 
  2787  0E24                     	;# 
  2788  0E25                     	;# 
  2789  0E26                     	;# 
  2790  0E27                     	;# 
  2791  0E28                     	;# 
  2792  0E29                     	;# 
  2793  0E2D                     	;# 
  2794  0E2E                     	;# 
  2795  0E2F                     	;# 
  2796  0E30                     	;# 
  2797  0E31                     	;# 
  2798  0E32                     	;# 
  2799  0E35                     	;# 
  2800  0E36                     	;# 
  2801  0E37                     	;# 
  2802  0E38                     	;# 
  2803  0E39                     	;# 
  2804  0E3A                     	;# 
  2805  0E3B                     	;# 
  2806  0E3C                     	;# 
  2807  0E3D                     	;# 
  2808  0E3E                     	;# 
  2809  0E90                     	;# 
  2810  0E91                     	;# 
  2811  0E92                     	;# 
  2812  0E93                     	;# 
  2813  0E94                     	;# 
  2814  0E95                     	;# 
  2815  0E96                     	;# 
  2816  0E97                     	;# 
  2817  0E98                     	;# 
  2818  0E99                     	;# 
  2819  0E9A                     	;# 
  2820  0E9B                     	;# 
  2821  0E9C                     	;# 
  2822  0E9D                     	;# 
  2823  0E9E                     	;# 
  2824  0E9F                     	;# 
  2825  0EA0                     	;# 
  2826  0EA1                     	;# 
  2827  0EA2                     	;# 
  2828  0EA3                     	;# 
  2829  0EA4                     	;# 
  2830  0EA5                     	;# 
  2831  0EA6                     	;# 
  2832  0EA7                     	;# 
  2833  0F0F                     	;# 
  2834  0F10                     	;# 
  2835  0F11                     	;# 
  2836  0F12                     	;# 
  2837  0F13                     	;# 
  2838  0F14                     	;# 
  2839  0F15                     	;# 
  2840  0F16                     	;# 
  2841  0F17                     	;# 
  2842  0F18                     	;# 
  2843  0F19                     	;# 
  2844  0F1A                     	;# 
  2845  0F1B                     	;# 
  2846  0F1C                     	;# 
  2847  0F1D                     	;# 
  2848  0F1E                     	;# 
  2849  0F1F                     	;# 
  2850  0F20                     	;# 
  2851  0F21                     	;# 
  2852  0F22                     	;# 
  2853  0F23                     	;# 
  2854  0F24                     	;# 
  2855  0F25                     	;# 
  2856  0F26                     	;# 
  2857  0F27                     	;# 
  2858  0F28                     	;# 
  2859  0F29                     	;# 
  2860  0F2A                     	;# 
  2861  0F2B                     	;# 
  2862  0F2C                     	;# 
  2863  0F2D                     	;# 
  2864  0F2E                     	;# 
  2865  0F2F                     	;# 
  2866  0F30                     	;# 
  2867  0F31                     	;# 
  2868  0F32                     	;# 
  2869  0F33                     	;# 
  2870  0F34                     	;# 
  2871  0F35                     	;# 
  2872  0F36                     	;# 
  2873  0F37                     	;# 
  2874  0FE4                     	;# 
  2875  0FE5                     	;# 
  2876  0FE6                     	;# 
  2877  0FE7                     	;# 
  2878  0FE8                     	;# 
  2879  0FE9                     	;# 
  2880  0FEA                     	;# 
  2881  0FEB                     	;# 
  2882  0FED                     	;# 
  2883  0FEE                     	;# 
  2884  0FEF                     	;# 
  2885  0000                     	;# 
  2886  0001                     	;# 
  2887  0002                     	;# 
  2888  0003                     	;# 
  2889  0004                     	;# 
  2890  0005                     	;# 
  2891  0006                     	;# 
  2892  0007                     	;# 
  2893  0008                     	;# 
  2894  0009                     	;# 
  2895  000A                     	;# 
  2896  000B                     	;# 
  2897  000C                     	;# 
  2898  000D                     	;# 
  2899  000E                     	;# 
  2900  0010                     	;# 
  2901  0011                     	;# 
  2902  0012                     	;# 
  2903  0013                     	;# 
  2904  0014                     	;# 
  2905  0015                     	;# 
  2906  0016                     	;# 
  2907  0017                     	;# 
  2908  0018                     	;# 
  2909  0018                     	;# 
  2910  0019                     	;# 
  2911  001A                     	;# 
  2912  001B                     	;# 
  2913  001C                     	;# 
  2914  001C                     	;# 
  2915  001D                     	;# 
  2916  001E                     	;# 
  2917  001F                     	;# 
  2918  008C                     	;# 
  2919  008D                     	;# 
  2920  008E                     	;# 
  2921  0090                     	;# 
  2922  0091                     	;# 
  2923  0092                     	;# 
  2924  0093                     	;# 
  2925  0094                     	;# 
  2926  0095                     	;# 
  2927  0096                     	;# 
  2928  0097                     	;# 
  2929  0098                     	;# 
  2930  0099                     	;# 
  2931  009A                     	;# 
  2932  009B                     	;# 
  2933  009C                     	;# 
  2934  009D                     	;# 
  2935  009E                     	;# 
  2936  009F                     	;# 
  2937  010C                     	;# 
  2938  010D                     	;# 
  2939  010E                     	;# 
  2940  0111                     	;# 
  2941  0112                     	;# 
  2942  0113                     	;# 
  2943  0114                     	;# 
  2944  0115                     	;# 
  2945  0116                     	;# 
  2946  0117                     	;# 
  2947  0118                     	;# 
  2948  0119                     	;# 
  2949  011A                     	;# 
  2950  011B                     	;# 
  2951  011C                     	;# 
  2952  011D                     	;# 
  2953  018C                     	;# 
  2954  018D                     	;# 
  2955  018E                     	;# 
  2956  0191                     	;# 
  2957  0191                     	;# 
  2958  0192                     	;# 
  2959  0193                     	;# 
  2960  0193                     	;# 
  2961  0194                     	;# 
  2962  0195                     	;# 
  2963  0196                     	;# 
  2964  0197                     	;# 
  2965  0199                     	;# 
  2966  0199                     	;# 
  2967  0199                     	;# 
  2968  019A                     	;# 
  2969  019A                     	;# 
  2970  019A                     	;# 
  2971  019B                     	;# 
  2972  019B                     	;# 
  2973  019B                     	;# 
  2974  019B                     	;# 
  2975  019B                     	;# 
  2976  019C                     	;# 
  2977  019C                     	;# 
  2978  019C                     	;# 
  2979  019D                     	;# 
  2980  019D                     	;# 
  2981  019D                     	;# 
  2982  019E                     	;# 
  2983  019E                     	;# 
  2984  019E                     	;# 
  2985  019F                     	;# 
  2986  019F                     	;# 
  2987  019F                     	;# 
  2988  019F                     	;# 
  2989  019F                     	;# 
  2990  020C                     	;# 
  2991  020D                     	;# 
  2992  020E                     	;# 
  2993  0210                     	;# 
  2994  0211                     	;# 
  2995  0211                     	;# 
  2996  0212                     	;# 
  2997  0212                     	;# 
  2998  0213                     	;# 
  2999  0213                     	;# 
  3000  0214                     	;# 
  3001  0214                     	;# 
  3002  0215                     	;# 
  3003  0215                     	;# 
  3004  0215                     	;# 
  3005  0215                     	;# 
  3006  0216                     	;# 
  3007  0216                     	;# 
  3008  0217                     	;# 
  3009  0217                     	;# 
  3010  021B                     	;# 
  3011  021C                     	;# 
  3012  021D                     	;# 
  3013  021E                     	;# 
  3014  021F                     	;# 
  3015  028C                     	;# 
  3016  028D                     	;# 
  3017  028E                     	;# 
  3018  0291                     	;# 
  3019  0291                     	;# 
  3020  0292                     	;# 
  3021  0293                     	;# 
  3022  0294                     	;# 
  3023  0295                     	;# 
  3024  0295                     	;# 
  3025  0296                     	;# 
  3026  0297                     	;# 
  3027  0298                     	;# 
  3028  0299                     	;# 
  3029  0299                     	;# 
  3030  029A                     	;# 
  3031  029B                     	;# 
  3032  029C                     	;# 
  3033  029E                     	;# 
  3034  029F                     	;# 
  3035  030C                     	;# 
  3036  030D                     	;# 
  3037  030E                     	;# 
  3038  0315                     	;# 
  3039  0316                     	;# 
  3040  0317                     	;# 
  3041  0318                     	;# 
  3042  0319                     	;# 
  3043  031B                     	;# 
  3044  031C                     	;# 
  3045  031D                     	;# 
  3046  031E                     	;# 
  3047  031F                     	;# 
  3048  038C                     	;# 
  3049  038D                     	;# 
  3050  038E                     	;# 
  3051  0390                     	;# 
  3052  0391                     	;# 
  3053  0392                     	;# 
  3054  0393                     	;# 
  3055  0394                     	;# 
  3056  0395                     	;# 
  3057  0396                     	;# 
  3058  0397                     	;# 
  3059  0398                     	;# 
  3060  0399                     	;# 
  3061  039D                     	;# 
  3062  039E                     	;# 
  3063  039F                     	;# 
  3064  040D                     	;# 
  3065  040F                     	;# 
  3066  040F                     	;# 
  3067  0410                     	;# 
  3068  0411                     	;# 
  3069  0412                     	;# 
  3070  0413                     	;# 
  3071  0413                     	;# 
  3072  0414                     	;# 
  3073  0414                     	;# 
  3074  0415                     	;# 
  3075  0416                     	;# 
  3076  0417                     	;# 
  3077  0418                     	;# 
  3078  041A                     	;# 
  3079  041A                     	;# 
  3080  041B                     	;# 
  3081  041B                     	;# 
  3082  041C                     	;# 
  3083  041D                     	;# 
  3084  041E                     	;# 
  3085  041F                     	;# 
  3086  048E                     	;# 
  3087  048E                     	;# 
  3088  048F                     	;# 
  3089  0490                     	;# 
  3090  0491                     	;# 
  3091  0492                     	;# 
  3092  0493                     	;# 
  3093  0493                     	;# 
  3094  0494                     	;# 
  3095  0494                     	;# 
  3096  0495                     	;# 
  3097  0496                     	;# 
  3098  0497                     	;# 
  3099  0498                     	;# 
  3100  049A                     	;# 
  3101  049A                     	;# 
  3102  049B                     	;# 
  3103  049B                     	;# 
  3104  049C                     	;# 
  3105  049D                     	;# 
  3106  049E                     	;# 
  3107  049F                     	;# 
  3108  050F                     	;# 
  3109  0510                     	;# 
  3110  0511                     	;# 
  3111  0512                     	;# 
  3112  0513                     	;# 
  3113  0514                     	;# 
  3114  0515                     	;# 
  3115  0516                     	;# 
  3116  0517                     	;# 
  3117  0518                     	;# 
  3118  0519                     	;# 
  3119  051A                     	;# 
  3120  058D                     	;# 
  3121  058E                     	;# 
  3122  058F                     	;# 
  3123  058F                     	;# 
  3124  058F                     	;# 
  3125  0590                     	;# 
  3126  0590                     	;# 
  3127  0591                     	;# 
  3128  0592                     	;# 
  3129  0592                     	;# 
  3130  0592                     	;# 
  3131  0593                     	;# 
  3132  0593                     	;# 
  3133  0594                     	;# 
  3134  0595                     	;# 
  3135  0595                     	;# 
  3136  0596                     	;# 
  3137  0597                     	;# 
  3138  0597                     	;# 
  3139  0598                     	;# 
  3140  0599                     	;# 
  3141  0599                     	;# 
  3142  0599                     	;# 
  3143  059A                     	;# 
  3144  059A                     	;# 
  3145  059E                     	;# 
  3146  059F                     	;# 
  3147  059F                     	;# 
  3148  0614                     	;# 
  3149  0614                     	;# 
  3150  0615                     	;# 
  3151  0616                     	;# 
  3152  0617                     	;# 
  3153  0617                     	;# 
  3154  0618                     	;# 
  3155  0619                     	;# 
  3156  061A                     	;# 
  3157  061A                     	;# 
  3158  061B                     	;# 
  3159  061C                     	;# 
  3160  068D                     	;# 
  3161  068E                     	;# 
  3162  068F                     	;# 
  3163  0690                     	;# 
  3164  0691                     	;# 
  3165  0692                     	;# 
  3166  0693                     	;# 
  3167  0694                     	;# 
  3168  0695                     	;# 
  3169  0696                     	;# 
  3170  0697                     	;# 
  3171  0698                     	;# 
  3172  0699                     	;# 
  3173  069A                     	;# 
  3174  069B                     	;# 
  3175  069C                     	;# 
  3176  069D                     	;# 
  3177  069E                     	;# 
  3178  069F                     	;# 
  3179  070D                     	;# 
  3180  070E                     	;# 
  3181  070F                     	;# 
  3182  0710                     	;# 
  3183  0711                     	;# 
  3184  0712                     	;# 
  3185  0713                     	;# 
  3186  0714                     	;# 
  3187  0715                     	;# 
  3188  0716                     	;# 
  3189  0717                     	;# 
  3190  0718                     	;# 
  3191  0719                     	;# 
  3192  071A                     	;# 
  3193  071B                     	;# 
  3194  071C                     	;# 
  3195  071D                     	;# 
  3196  071E                     	;# 
  3197  071F                     	;# 
  3198  078E                     	;# 
  3199  078F                     	;# 
  3200  0790                     	;# 
  3201  0791                     	;# 
  3202  0792                     	;# 
  3203  0793                     	;# 
  3204  0794                     	;# 
  3205  0795                     	;# 
  3206  0796                     	;# 
  3207  0797                     	;# 
  3208  0798                     	;# 
  3209  0799                     	;# 
  3210  079A                     	;# 
  3211  079B                     	;# 
  3212  079C                     	;# 
  3213  079D                     	;# 
  3214  079E                     	;# 
  3215  079F                     	;# 
  3216  080D                     	;# 
  3217  080E                     	;# 
  3218  080F                     	;# 
  3219  0810                     	;# 
  3220  0811                     	;# 
  3221  0812                     	;# 
  3222  0813                     	;# 
  3223  0814                     	;# 
  3224  0815                     	;# 
  3225  0816                     	;# 
  3226  0817                     	;# 
  3227  0818                     	;# 
  3228  0819                     	;# 
  3229  081A                     	;# 
  3230  081B                     	;# 
  3231  081C                     	;# 
  3232  081D                     	;# 
  3233  081E                     	;# 
  3234  081F                     	;# 
  3235  090C                     	;# 
  3236  090D                     	;# 
  3237  090E                     	;# 
  3238  090F                     	;# 
  3239  0910                     	;# 
  3240  0911                     	;# 
  3241  0912                     	;# 
  3242  0913                     	;# 
  3243  0914                     	;# 
  3244  0915                     	;# 
  3245  0916                     	;# 
  3246  0917                     	;# 
  3247  0D8E                     	;# 
  3248  0D8F                     	;# 
  3249  0D90                     	;# 
  3250  0D91                     	;# 
  3251  0D91                     	;# 
  3252  0D92                     	;# 
  3253  0D93                     	;# 
  3254  0D93                     	;# 
  3255  0D94                     	;# 
  3256  0D95                     	;# 
  3257  0D95                     	;# 
  3258  0D96                     	;# 
  3259  0D97                     	;# 
  3260  0D97                     	;# 
  3261  0D98                     	;# 
  3262  0D99                     	;# 
  3263  0D99                     	;# 
  3264  0D9A                     	;# 
  3265  0D9B                     	;# 
  3266  0D9C                     	;# 
  3267  0D9C                     	;# 
  3268  0D9D                     	;# 
  3269  0D9D                     	;# 
  3270  0D9E                     	;# 
  3271  0D9F                     	;# 
  3272  0DA0                     	;# 
  3273  0DA1                     	;# 
  3274  0DA1                     	;# 
  3275  0DA2                     	;# 
  3276  0DA3                     	;# 
  3277  0DA3                     	;# 
  3278  0DA4                     	;# 
  3279  0DA5                     	;# 
  3280  0DA5                     	;# 
  3281  0DA6                     	;# 
  3282  0DA7                     	;# 
  3283  0DA7                     	;# 
  3284  0DA8                     	;# 
  3285  0DA9                     	;# 
  3286  0DA9                     	;# 
  3287  0DAA                     	;# 
  3288  0DAB                     	;# 
  3289  0DAC                     	;# 
  3290  0DAC                     	;# 
  3291  0DAD                     	;# 
  3292  0DAD                     	;# 
  3293  0DAE                     	;# 
  3294  0DAF                     	;# 
  3295  0DB0                     	;# 
  3296  0DB1                     	;# 
  3297  0DB1                     	;# 
  3298  0DB2                     	;# 
  3299  0DB3                     	;# 
  3300  0DB3                     	;# 
  3301  0DB4                     	;# 
  3302  0DB5                     	;# 
  3303  0DB5                     	;# 
  3304  0DB6                     	;# 
  3305  0DB7                     	;# 
  3306  0DB7                     	;# 
  3307  0DB8                     	;# 
  3308  0DB9                     	;# 
  3309  0DB9                     	;# 
  3310  0DBA                     	;# 
  3311  0DBB                     	;# 
  3312  0DBC                     	;# 
  3313  0DBC                     	;# 
  3314  0DBD                     	;# 
  3315  0DBD                     	;# 
  3316  0DBE                     	;# 
  3317  0DBF                     	;# 
  3318  0DC0                     	;# 
  3319  0E0C                     	;# 
  3320  0E0D                     	;# 
  3321  0E0E                     	;# 
  3322  0E0F                     	;# 
  3323  0E10                     	;# 
  3324  0E11                     	;# 
  3325  0E12                     	;# 
  3326  0E13                     	;# 
  3327  0E14                     	;# 
  3328  0E15                     	;# 
  3329  0E15                     	;# 
  3330  0E15                     	;# 
  3331  0E16                     	;# 
  3332  0E16                     	;# 
  3333  0E16                     	;# 
  3334  0E17                     	;# 
  3335  0E17                     	;# 
  3336  0E17                     	;# 
  3337  0E18                     	;# 
  3338  0E18                     	;# 
  3339  0E18                     	;# 
  3340  0E19                     	;# 
  3341  0E1A                     	;# 
  3342  0E1B                     	;# 
  3343  0E1D                     	;# 
  3344  0E1E                     	;# 
  3345  0E1F                     	;# 
  3346  0E21                     	;# 
  3347  0E22                     	;# 
  3348  0E23                     	;# 
  3349  0E24                     	;# 
  3350  0E25                     	;# 
  3351  0E26                     	;# 
  3352  0E27                     	;# 
  3353  0E28                     	;# 
  3354  0E29                     	;# 
  3355  0E2D                     	;# 
  3356  0E2E                     	;# 
  3357  0E2F                     	;# 
  3358  0E30                     	;# 
  3359  0E31                     	;# 
  3360  0E32                     	;# 
  3361  0E35                     	;# 
  3362  0E36                     	;# 
  3363  0E37                     	;# 
  3364  0E38                     	;# 
  3365  0E39                     	;# 
  3366  0E3A                     	;# 
  3367  0E3B                     	;# 
  3368  0E3C                     	;# 
  3369  0E3D                     	;# 
  3370  0E3E                     	;# 
  3371  0E90                     	;# 
  3372  0E91                     	;# 
  3373  0E92                     	;# 
  3374  0E93                     	;# 
  3375  0E94                     	;# 
  3376  0E95                     	;# 
  3377  0E96                     	;# 
  3378  0E97                     	;# 
  3379  0E98                     	;# 
  3380  0E99                     	;# 
  3381  0E9A                     	;# 
  3382  0E9B                     	;# 
  3383  0E9C                     	;# 
  3384  0E9D                     	;# 
  3385  0E9E                     	;# 
  3386  0E9F                     	;# 
  3387  0EA0                     	;# 
  3388  0EA1                     	;# 
  3389  0EA2                     	;# 
  3390  0EA3                     	;# 
  3391  0EA4                     	;# 
  3392  0EA5                     	;# 
  3393  0EA6                     	;# 
  3394  0EA7                     	;# 
  3395  0F0F                     	;# 
  3396  0F10                     	;# 
  3397  0F11                     	;# 
  3398  0F12                     	;# 
  3399  0F13                     	;# 
  3400  0F14                     	;# 
  3401  0F15                     	;# 
  3402  0F16                     	;# 
  3403  0F17                     	;# 
  3404  0F18                     	;# 
  3405  0F19                     	;# 
  3406  0F1A                     	;# 
  3407  0F1B                     	;# 
  3408  0F1C                     	;# 
  3409  0F1D                     	;# 
  3410  0F1E                     	;# 
  3411  0F1F                     	;# 
  3412  0F20                     	;# 
  3413  0F21                     	;# 
  3414  0F22                     	;# 
  3415  0F23                     	;# 
  3416  0F24                     	;# 
  3417  0F25                     	;# 
  3418  0F26                     	;# 
  3419  0F27                     	;# 
  3420  0F28                     	;# 
  3421  0F29                     	;# 
  3422  0F2A                     	;# 
  3423  0F2B                     	;# 
  3424  0F2C                     	;# 
  3425  0F2D                     	;# 
  3426  0F2E                     	;# 
  3427  0F2F                     	;# 
  3428  0F30                     	;# 
  3429  0F31                     	;# 
  3430  0F32                     	;# 
  3431  0F33                     	;# 
  3432  0F34                     	;# 
  3433  0F35                     	;# 
  3434  0F36                     	;# 
  3435  0F37                     	;# 
  3436  0FE4                     	;# 
  3437  0FE5                     	;# 
  3438  0FE6                     	;# 
  3439  0FE7                     	;# 
  3440  0FE8                     	;# 
  3441  0FE9                     	;# 
  3442  0FEA                     	;# 
  3443  0FEB                     	;# 
  3444  0FED                     	;# 
  3445  0FEE                     	;# 
  3446  0FEF                     	;# 
  3447                           
  3448                           	psect	idataBANK0
  3449  0405                     __pidataBANK0:	
  3450                           
  3451                           ;initializer for _writeable_reg
  3452  0405  34FF               	retlw	255
  3453  0406  34FF               	retlw	255
  3454  0407  34FF               	retlw	255
  3455  0408  34FF               	retlw	255
  3456  0409  34FF               	retlw	255
  3457  040A  34FF               	retlw	255
  3458  040B  34FF               	retlw	255
  3459  040C  34FF               	retlw	255
  3460  040D  34FF               	retlw	255
  3461  040E  34FF               	retlw	255
  3462                           
  3463                           ;initializer for _pps_pwm_vals
  3464  040F  3419               	retlw	25
  3465  0410  341A               	retlw	26
  3466  0411  341B               	retlw	27
  3467  0412  341D               	retlw	29
  3468                           
  3469                           	psect	stringtext1
  3470  0800                     __pstringtext1:	
  3471  0800                     _int_time_delay:	
  3472  0800  34E8               	retlw	232
  3473  0801  3403               	retlw	3
  3474  0802                     __end_of_int_time_delay:	
  3475                           
  3476                           	psect	stringtext2
  3477  0802                     __pstringtext2:	
  3478  0802                     _i2c_slave_addr:	
  3479  0802  3429               	retlw	41
  3480  0803                     __end_of_i2c_slave_addr:	
  3481  000D                     _PORTBbits	set	13
  3482  001E                     _T3CONbits	set	30
  3483  001C                     _TMR3L	set	28
  3484  001D                     _TMR3H	set	29
  3485  001E                     _T3CON	set	30
  3486  000B                     _INTCON	set	11
  3487  0011                     _PIR1bits	set	17
  3488  0097                     _OPTION_REG	set	151
  3489  009B                     _OSCCON	set	155
  3490  008D                     _TRISB	set	141
  3491  008C                     _TRISA	set	140
  3492  0091                     _PIE1bits	set	145
  3493  008E                     _TRISC	set	142
  3494  010D                     _LATB	set	269
  3495  010C                     _LATA	set	268
  3496  010E                     _LATC	set	270
  3497  018D                     _ANSELB	set	397
  3498  018C                     _ANSELA	set	396
  3499  018E                     _ANSELC	set	398
  3500  0210                     _WPUE	set	528
  3501  020D                     _WPUB	set	525
  3502  020C                     _WPUA	set	524
  3503  0211                     _SSP1BUF	set	529
  3504  0215                     _SSP1CONbits	set	533
  3505  0214                     _SSP1STATbits	set	532
  3506  0217                     _SSP1CON3	set	535
  3507  0216                     _SSP1CON2	set	534
  3508  0215                     _SSP1CON1	set	533
  3509  0212                     _SSP1ADD	set	530
  3510  020E                     _WPUC	set	526
  3511  0495                     _T2CON	set	1173
  3512  0494                     _T2PR	set	1172
  3513  0497                     _T2CLKCON	set	1175
  3514  061C                     _PWM9CON	set	1564
  3515  0619                     _PWM4CON	set	1561
  3516  0616                     _PWM3CON	set	1558
  3517  061A                     _PWM9DCL	set	1562
  3518  061B                     _PWM9DCH	set	1563
  3519  0617                     _PWM4DCL	set	1559
  3520  0618                     _PWM4DCH	set	1560
  3521  0614                     _PWM3DCL	set	1556
  3522  0615                     _PWM3DCH	set	1557
  3523  0D9B                     _PWM5CON	set	3483
  3524  0D91                     _PWM5PHL	set	3473
  3525  0D92                     _PWM5PHH	set	3474
  3526  0D95                     _PWM5PRL	set	3477
  3527  0D96                     _PWM5PRH	set	3478
  3528  0D9F                     _PWM5LDCON	set	3487
  3529  0D9E                     _PWM5CLKCON	set	3486
  3530  0D9F                     _PWM5LDCONbits	set	3487
  3531  0D93                     _PWM5DCL	set	3475
  3532  0D94                     _PWM5DCH	set	3476
  3533  0E3B                     _SSPDATPPS	set	3643
  3534  0E3A                     _SSPCLKPPS	set	3642
  3535  0E96                     _RA6PPS	set	3734
  3536  0E97                     _RA7PPS	set	3735
  3537  0E95                     _RA5PPS	set	3733
  3538  0E94                     _RA4PPS	set	3732
  3539  0E93                     _RA3PPS	set	3731
  3540  0E92                     _RA2PPS	set	3730
  3541  0E91                     _RA1PPS	set	3729
  3542  0E90                     _RA0PPS	set	3728
  3543  0EA3                     _RC3PPS	set	3747
  3544  0EA2                     _RC2PPS	set	3746
  3545                           
  3546                           ; #config settings
  3547  0000                     
  3548                           	psect	cinit
  3549  07E9                     start_initialization:	
  3550  07E9                     __initialization:	
  3551                           
  3552                           ; Initialize objects allocated to BANK0
  3553  07E9  3005               	movlw	low __pidataBANK0
  3554  07EA  0084               	movwf	4
  3555  07EB  3084               	movlw	(high __pidataBANK0)| (0+128)
  3556  07EC  0085               	movwf	5
  3557  07ED  3030               	movlw	low __pdataBANK0
  3558  07EE  0086               	movwf	6
  3559  07EF  3000               	movlw	high __pdataBANK0
  3560  07F0  0087               	movwf	7
  3561  07F1  300E               	movlw	14
  3562  07F2  3183  23E7  3187   	fcall	init_ram
  3563                           
  3564                           ; Clear objects allocated to BANK0
  3565  07F5  303E               	movlw	low __pbssBANK0
  3566  07F6  0084               	movwf	4
  3567  07F7  3000               	movlw	high __pbssBANK0
  3568  07F8  0085               	movwf	5
  3569  07F9  300D               	movlw	13
  3570  07FA  3183  23E1  3187   	fcall	clear_ram0
  3571  07FD                     end_of_initialization:	
  3572                           ;End of C runtime variable initialization code
  3573                           
  3574  07FD                     __end_of__initialization:	
  3575  07FD  0020               	movlb	0
  3576  07FE  3184  2CBC         	ljmp	_main	;jump to C main() function
  3577                           
  3578                           	psect	bssBANK0
  3579  003E                     __pbssBANK0:	
  3580  003E                     _i2c_registers:	
  3581  003E                     	ds	10
  3582  0048                     _prev_steps:	
  3583  0048                     	ds	1
  3584  0049                     _first_write:	
  3585  0049                     	ds	1
  3586  004A                     _current_reg:	
  3587  004A                     	ds	1
  3588                           
  3589                           	psect	dataBANK0
  3590  0030                     __pdataBANK0:	
  3591  0030                     _writeable_reg:	
  3592  0030                     	ds	10
  3593  003A                     _pps_pwm_vals:	
  3594  003A                     	ds	4
  3595                           
  3596                           	psect	inittext
  3597  03E7                     init_ram:	
  3598  03E7  00FE               	movwf	btemp
  3599  03E8                     initloop:	
  3600  03E8  0012               	moviw fsr0++
  3601  03E9  001E               	movwi fsr1++
  3602  03EA  0BFE               	decfsz	btemp,f
  3603  03EB  2BE8               	goto	initloop
  3604  03EC  3400               	retlw	0
  3605                           
  3606                           	psect	clrtext
  3607  03E1                     clear_ram0:	
  3608                           ;	Called with FSR0 containing the base address, and
  3609                           ;	WREG with the size to clear
  3610                           
  3611  03E1  0064               	clrwdt	;clear the watchdog before getting into this loop
  3612  03E2                     clrloop0:	
  3613  03E2  0180               	clrf	0	;clear RAM location pointed to by FSR
  3614  03E3  3101               	addfsr 0,1
  3615  03E4  0B89               	decfsz	9,f	;Have we reached the end of clearing yet?
  3616  03E5  2BE2               	goto	clrloop0	;have we reached the end yet?
  3617  03E6  3400               	retlw	0	;all done for this memory range, return
  3618                           
  3619                           	psect	cstackCOMMON
  3620  0070                     __pcstackCOMMON:	
  3621  0070                     ?_handle_read:	
  3622  0070                     ?_handle_write:	
  3623                           ; 1 bytes @ 0x0
  3624                           
  3625  0070                     ?_read_register:	
  3626                           ; 1 bytes @ 0x0
  3627                           
  3628  0070                     ??_read_register:	
  3629                           ; 1 bytes @ 0x0
  3630                           
  3631  0070                     ?_write_register:	
  3632                           ; 1 bytes @ 0x0
  3633                           
  3634  0070                     ?_config_pwm:	
  3635                           ; 1 bytes @ 0x0
  3636                           
  3637  0070                     ?_config_rev:	
  3638                           ; 1 bytes @ 0x0
  3639                           
  3640  0070                     ??_config_rev:	
  3641                           ; 1 bytes @ 0x0
  3642                           
  3643  0070                     ?_update_motors:	
  3644                           ; 1 bytes @ 0x0
  3645                           
  3646  0070                     ?_update_rev:	
  3647                           ; 1 bytes @ 0x0
  3648                           
  3649  0070                     ?_set_pwm:	
  3650                           ; 1 bytes @ 0x0
  3651                           
  3652  0070                     ?_set_motor_pps:	
  3653                           ; 1 bytes @ 0x0
  3654                           
  3655  0070                     ?_config_i2c:	
  3656                           ; 1 bytes @ 0x0
  3657                           
  3658  0070                     ??_config_i2c:	
  3659                           ; 1 bytes @ 0x0
  3660                           
  3661  0070                     ?_i2c_isr:	
  3662                           ; 1 bytes @ 0x0
  3663                           
  3664  0070                     ?_config_io:	
  3665                           ; 1 bytes @ 0x0
  3666                           
  3667  0070                     ??_config_io:	
  3668                           ; 1 bytes @ 0x0
  3669                           
  3670  0070                     ?_config_cpu:	
  3671                           ; 1 bytes @ 0x0
  3672                           
  3673  0070                     ??_config_cpu:	
  3674                           ; 1 bytes @ 0x0
  3675                           
  3676  0070                     ?_update_ctl:	
  3677                           ; 1 bytes @ 0x0
  3678                           
  3679  0070                     ?_set_pwms_dc:	
  3680                           ; 1 bytes @ 0x0
  3681                           
  3682  0070                     ?_get_a_val:	
  3683                           ; 1 bytes @ 0x0
  3684                           
  3685  0070                     ??_get_a_val:	
  3686                           ; 1 bytes @ 0x0
  3687                           
  3688  0070                     ?_get_b_val:	
  3689                           ; 1 bytes @ 0x0
  3690                           
  3691  0070                     ??_get_b_val:	
  3692                           ; 1 bytes @ 0x0
  3693                           
  3694  0070                     ?_reset_timer:	
  3695                           ; 1 bytes @ 0x0
  3696                           
  3697  0070                     ??_reset_timer:	
  3698                           ; 1 bytes @ 0x0
  3699                           
  3700  0070                     ?_stop_timer:	
  3701                           ; 1 bytes @ 0x0
  3702                           
  3703  0070                     ??_stop_timer:	
  3704                           ; 1 bytes @ 0x0
  3705                           
  3706  0070                     ?_start_timer:	
  3707                           ; 1 bytes @ 0x0
  3708                           
  3709  0070                     ??_start_timer:	
  3710                           ; 1 bytes @ 0x0
  3711                           
  3712  0070                     ?_main:	
  3713                           ; 1 bytes @ 0x0
  3714                           
  3715  0070                     ?_get_timer:	
  3716                           ; 2 bytes @ 0x0
  3717                           
  3718  0070                     write_register@val:	
  3719                           ; 2 bytes @ 0x0
  3720                           
  3721  0070                     read_register@reg:	
  3722                           ; 1 bytes @ 0x0
  3723                           
  3724  0070                     set_pwms_dc@m4:	
  3725                           ; 1 bytes @ 0x0
  3726                           
  3727  0070                     set_motor_pps@a_mode:	
  3728                           ; 1 bytes @ 0x0
  3729                           
  3730  0070                     set_pwm@pwm:	
  3731                           ; 1 bytes @ 0x0
  3732                           
  3733                           
  3734                           ; 1 bytes @ 0x0
  3735  0070                     	ds	1
  3736  0071                     ??_handle_read:	
  3737  0071                     ??_write_register:	
  3738                           ; 1 bytes @ 0x1
  3739                           
  3740  0071                     ??_set_pwm:	
  3741                           ; 1 bytes @ 0x1
  3742                           
  3743  0071                     set_pwms_dc@m9:	
  3744                           ; 1 bytes @ 0x1
  3745                           
  3746  0071                     set_motor_pps@b_mode:	
  3747                           ; 1 bytes @ 0x1
  3748                           
  3749                           
  3750                           ; 1 bytes @ 0x1
  3751  0071                     	ds	1
  3752  0072                     ??_set_motor_pps:	
  3753  0072                     ??_get_timer:	
  3754                           ; 1 bytes @ 0x2
  3755                           
  3756  0072                     write_register@msk:	
  3757                           ; 1 bytes @ 0x2
  3758                           
  3759  0072                     set_pwms_dc@m5:	
  3760                           ; 1 bytes @ 0x2
  3761                           
  3762  0072                     get_a_val@mode:	
  3763                           ; 1 bytes @ 0x2
  3764                           
  3765  0072                     get_b_val@mode:	
  3766                           ; 1 bytes @ 0x2
  3767                           
  3768                           
  3769                           ; 1 bytes @ 0x2
  3770  0072                     	ds	1
  3771  0073                     ??_set_pwms_dc:	
  3772  0073                     handle_read@buf:	
  3773                           ; 1 bytes @ 0x3
  3774                           
  3775  0073                     write_register@reg:	
  3776                           ; 1 bytes @ 0x3
  3777                           
  3778  0073                     set_pwm@motor:	
  3779                           ; 1 bytes @ 0x3
  3780                           
  3781                           
  3782                           ; 1 bytes @ 0x3
  3783  0073                     	ds	1
  3784  0074                     ??_handle_write:	
  3785  0074                     set_pwms_dc@m3:	
  3786                           ; 1 bytes @ 0x4
  3787                           
  3788                           
  3789                           ; 1 bytes @ 0x4
  3790  0074                     	ds	1
  3791  0075                     ??_config_pwm:	
  3792  0075                     ?_set_pwm_mode:	
  3793                           ; 1 bytes @ 0x5
  3794                           
  3795  0075                     handle_write@buf:	
  3796                           ; 1 bytes @ 0x5
  3797                           
  3798  0075                     set_pwm_mode@mode:	
  3799                           ; 1 bytes @ 0x5
  3800                           
  3801                           
  3802                           ; 1 bytes @ 0x5
  3803  0075                     	ds	1
  3804  0076                     ??_set_pwm_mode:	
  3805  0076                     ??_i2c_isr:	
  3806                           ; 1 bytes @ 0x6
  3807                           
  3808                           
  3809                           ; 1 bytes @ 0x6
  3810  0076                     	ds	1
  3811  0077                     get_timer@l:	
  3812                           
  3813                           ; 1 bytes @ 0x7
  3814  0077                     	ds	1
  3815  0078                     set_pwm_mode@motor:	
  3816  0078                     get_timer@h:	
  3817                           ; 1 bytes @ 0x8
  3818                           
  3819                           
  3820                           ; 1 bytes @ 0x8
  3821  0078                     	ds	1
  3822  0079                     ??_update_rev:	
  3823  0079                     set_pwm_mode@a:	
  3824                           ; 1 bytes @ 0x9
  3825                           
  3826                           
  3827                           ; 1 bytes @ 0x9
  3828  0079                     	ds	1
  3829  007A                     set_pwm_mode@b:	
  3830  007A                     update_rev@t:	
  3831                           ; 1 bytes @ 0xA
  3832                           
  3833                           
  3834                           ; 2 bytes @ 0xA
  3835  007A                     	ds	1
  3836  007B                     ??_set_motor:	
  3837                           
  3838                           ; 1 bytes @ 0xB
  3839  007B                     	ds	1
  3840  007C                     update_rev@steps_buf:	
  3841                           
  3842                           ; 1 bytes @ 0xC
  3843  007C                     	ds	1
  3844  007D                     set_motor@motor:	
  3845                           
  3846                           ; 1 bytes @ 0xD
  3847  007D                     	ds	1
  3848  007E                     ??_update_motors:	
  3849  007E                     ??_main:	
  3850                           ; 1 bytes @ 0xE
  3851                           
  3852                           
  3853                           	psect	cstackBANK0
  3854  0020                     __pcstackBANK0:	
  3855                           ; 1 bytes @ 0xE
  3856                           
  3857  0020                     _set_motor_pps$383:	
  3858                           
  3859                           ; 2 bytes @ 0x0
  3860  0020                     	ds	2
  3861  0022                     _set_motor_pps$385:	
  3862                           
  3863                           ; 2 bytes @ 0x2
  3864  0022                     	ds	2
  3865  0024                     set_motor_pps@motor:	
  3866                           
  3867                           ; 1 bytes @ 0x4
  3868  0024                     	ds	1
  3869  0025                     set_motor_pps@pps_a:	
  3870                           
  3871                           ; 1 bytes @ 0x5
  3872  0025                     	ds	1
  3873  0026                     set_motor_pps@pps_b:	
  3874                           
  3875                           ; 1 bytes @ 0x6
  3876  0026                     	ds	1
  3877  0027                     set_motor_pps@lat_a:	
  3878                           
  3879                           ; 1 bytes @ 0x7
  3880  0027                     	ds	1
  3881  0028                     set_motor_pps@lat_b:	
  3882                           
  3883                           ; 1 bytes @ 0x8
  3884  0028                     	ds	1
  3885  0029                     set_motor_pps@x:	
  3886                           
  3887                           ; 1 bytes @ 0x9
  3888  0029                     	ds	1
  3889  002A                     ?_set_motor:	
  3890  002A                     set_motor@dir:	
  3891                           ; 1 bytes @ 0xA
  3892                           
  3893                           
  3894                           ; 1 bytes @ 0xA
  3895  002A                     	ds	1
  3896  002B                     set_motor@pwm:	
  3897                           
  3898                           ; 1 bytes @ 0xB
  3899  002B                     	ds	1
  3900  002C                     ??_update_ctl:	
  3901                           
  3902                           ; 1 bytes @ 0xC
  3903  002C                     	ds	2
  3904  002E                     update_ctl@c:	
  3905                           
  3906                           ; 1 bytes @ 0xE
  3907  002E                     	ds	1
  3908  002F                     update_ctl@i:	
  3909                           
  3910                           ; 1 bytes @ 0xF
  3911  002F                     	ds	1
  3912                           
  3913                           	psect	maintext
  3914  04BC                     __pmaintext:	
  3915 ;;
  3916 ;;Main: autosize = 0, tempsize = 0, incstack = 0, save=0
  3917 ;;
  3918 ;; *************** function _main *****************
  3919 ;; Defined at:
  3920 ;;		line 25 in file "code/main.c"
  3921 ;; Parameters:    Size  Location     Type
  3922 ;;		None
  3923 ;; Auto vars:     Size  Location     Type
  3924 ;;		None
  3925 ;; Return value:  Size  Location     Type
  3926 ;;                  2  129[None  ] int 
  3927 ;; Registers used:
  3928 ;;		wreg, fsr0l, fsr0h, fsr1l, fsr1h, status,2, status,0, pclath, cstack
  3929 ;; Tracked objects:
  3930 ;;		On entry : B1F/0
  3931 ;;		On exit  : 0/0
  3932 ;;		Unchanged: 0/0
  3933 ;; Data sizes:     COMMON   BANK0   BANK1   BANK2   BANK3   BANK4   BANK5   BANK6
  3934 ;;      Params:         0       0       0       0       0       0       0       0
  3935 ;;      Locals:         0       0       0       0       0       0       0       0
  3936 ;;      Temps:          0       0       0       0       0       0       0       0
  3937 ;;      Totals:         0       0       0       0       0       0       0       0
  3938 ;;Total ram usage:        0 bytes
  3939 ;; Hardware stack levels required when called:    5
  3940 ;; This function calls:
  3941 ;;		_config_cpu
  3942 ;;		_config_i2c
  3943 ;;		_config_io
  3944 ;;		_config_pwm
  3945 ;;		_config_rev
  3946 ;;		_i2c_isr
  3947 ;;		_update_motors
  3948 ;;		_update_rev
  3949 ;; This function is called by:
  3950 ;;		Startup code after reset
  3951 ;; This function uses a non-reentrant model
  3952 ;;
  3953                           
  3954                           
  3955                           ;psect for function _main
  3956  04BC                     _main:	
  3957  04BC                     l1600:	
  3958                           ;incstack = 0
  3959                           ; Regs used in _main: [wreg-fsr1h+status,2+status,0+pclath+cstack]
  3960                           
  3961                           
  3962                           ;code/main.c: 27:      config_cpu();
  3963  04BC  3183  23DB  3184   	fcall	_config_cpu
  3964                           
  3965                           ;code/main.c: 28:      config_io();
  3966  04BF  3184  2422  3184   	fcall	_config_io
  3967  04C2                     l1602:	
  3968                           
  3969                           ;code/main.c: 29:      config_pwm();
  3970  04C2  3185  25C6  3184   	fcall	_config_pwm
  3971  04C5                     l1604:	
  3972                           
  3973                           ;code/main.c: 30:      config_i2c();
  3974  04C5  3184  24DD  3184   	fcall	_config_i2c
  3975  04C8                     l1606:	
  3976                           
  3977                           ;code/main.c: 31:      config_rev();
  3978  04C8  3183  23ED  3184   	fcall	_config_rev
  3979  04CB                     l1608:	
  3980                           
  3981                           ;code/main.c: 34:           update_motors();
  3982  04CB  3183  23D2  3184   	fcall	_update_motors
  3983  04CE                     l1610:	
  3984                           
  3985                           ;code/main.c: 35:           if(PIR1bits.SSP1IF){
  3986  04CE  0020               	movlb	0	; select bank0
  3987  04CF  1D91               	btfss	17,3	;volatile
  3988  04D0  2CD2               	goto	u781
  3989  04D1  2CD3               	goto	u780
  3990  04D2                     u781:	
  3991  04D2  2CD7               	goto	l1616
  3992  04D3                     u780:	
  3993  04D3                     l1612:	
  3994                           
  3995                           ;code/main.c: 36:                PIR1bits.SSP1IF = 0;
  3996  04D3  1191               	bcf	17,3	;volatile
  3997  04D4                     l1614:	
  3998                           
  3999                           ;code/main.c: 37:                i2c_isr();
  4000  04D4  3184  2432  3184   	fcall	_i2c_isr
  4001  04D7                     l1616:	
  4002                           
  4003                           ;code/main.c: 39:           update_rev();
  4004  04D7  3186  2604  3184   	fcall	_update_rev
  4005  04DA  2CCB               	goto	l1608
  4006  04DB  3180  2802         	ljmp	start
  4007  04DD                     __end_of_main:	
  4008                           
  4009                           	psect	text1
  4010  0604                     __ptext1:	
  4011 ;; *************** function _update_rev *****************
  4012 ;; Defined at:
  4013 ;;		line 38 in file "code/rev.c"
  4014 ;; Parameters:    Size  Location     Type
  4015 ;;		None
  4016 ;; Auto vars:     Size  Location     Type
  4017 ;;  t               2   10[COMMON] short 
  4018 ;;  steps_buf       1   12[COMMON] unsigned char 
  4019 ;; Return value:  Size  Location     Type
  4020 ;;                  1    wreg      void 
  4021 ;; Registers used:
  4022 ;;		wreg, status,2, status,0, pclath, cstack
  4023 ;; Tracked objects:
  4024 ;;		On entry : 0/0
  4025 ;;		On exit  : 0/0
  4026 ;;		Unchanged: 0/0
  4027 ;; Data sizes:     COMMON   BANK0   BANK1   BANK2   BANK3   BANK4   BANK5   BANK6
  4028 ;;      Params:         0       0       0       0       0       0       0       0
  4029 ;;      Locals:         3       0       0       0       0       0       0       0
  4030 ;;      Temps:          1       0       0       0       0       0       0       0
  4031 ;;      Totals:         4       0       0       0       0       0       0       0
  4032 ;;Total ram usage:        4 bytes
  4033 ;; Hardware stack levels used:    1
  4034 ;; Hardware stack levels required when called:    1
  4035 ;; This function calls:
  4036 ;;		_get_timer
  4037 ;;		_reset_timer
  4038 ;;		_start_timer
  4039 ;;		_stop_timer
  4040 ;; This function is called by:
  4041 ;;		_main
  4042 ;; This function uses a non-reentrant model
  4043 ;;
  4044                           
  4045                           
  4046                           ;psect for function _update_rev
  4047  0604                     _update_rev:	
  4048  0604                     l1574:	
  4049                           ;incstack = 0
  4050                           ; Regs used in _update_rev: [wreg+status,2+status,0+pclath+cstack]
  4051                           
  4052                           
  4053                           ;code/rev.c: 39:      u8 steps_buf = i2c_registers[9];
  4054  0604  0020               	movlb	0	; select bank0
  4055  0605  0847               	movf	_i2c_registers+9,w
  4056  0606  00F9               	movwf	??_update_rev
  4057  0607  0879               	movf	??_update_rev,w
  4058  0608  00FC               	movwf	update_rev@steps_buf
  4059  0609                     l1576:	
  4060                           
  4061                           ;code/rev.c: 41:      if(PORTBbits.RB1){
  4062  0609  1C8D               	btfss	13,1	;volatile
  4063  060A  2E0C               	goto	u731
  4064  060B  2E0D               	goto	u730
  4065  060C                     u731:	
  4066  060C  2E27               	goto	l1586
  4067  060D                     u730:	
  4068  060D                     l1578:	
  4069                           
  4070                           ;code/rev.c: 42:           short t = get_timer();
  4071  060D  3184  249D  3186   	fcall	_get_timer
  4072  0610  0871               	movf	?_get_timer+1,w
  4073  0611  00FB               	movwf	update_rev@t+1
  4074  0612  0870               	movf	?_get_timer,w
  4075  0613  00FA               	movwf	update_rev@t
  4076  0614                     l1580:	
  4077                           
  4078                           ;code/rev.c: 43:           if(t >= int_time_delay){
  4079  0614  087B               	movf	update_rev@t+1,w
  4080  0615  3A80               	xorlw	128
  4081  0616  00F9               	movwf	??_update_rev
  4082  0617  3083               	movlw	131
  4083  0618  0279               	subwf	??_update_rev,w
  4084  0619  1D03               	skipz
  4085  061A  2E1D               	goto	u745
  4086  061B  30E8               	movlw	232
  4087  061C  027A               	subwf	update_rev@t,w
  4088  061D                     u745:	
  4089  061D  1C03               	skipc
  4090  061E  2E20               	goto	u741
  4091  061F  2E21               	goto	u740
  4092  0620                     u741:	
  4093  0620  2E24               	goto	l1584
  4094  0621                     u740:	
  4095  0621                     l1582:	
  4096                           
  4097                           ;code/rev.c: 44:                i2c_registers[9] -= 1;
  4098  0621  3001               	movlw	1
  4099  0622  0020               	movlb	0	; select bank0
  4100  0623  02C7               	subwf	_i2c_registers+9,f
  4101  0624                     l1584:	
  4102                           
  4103                           ;code/rev.c: 46:           reset_timer();
  4104  0624  3183  23D6  3186   	fcall	_reset_timer
  4105  0627                     l1586:	
  4106                           
  4107                           ;code/rev.c: 50:      if(!steps_buf && prev_steps){
  4108  0627  087C               	movf	update_rev@steps_buf,w
  4109  0628  1D03               	btfss	3,2
  4110  0629  2E2B               	goto	u751
  4111  062A  2E2C               	goto	u750
  4112  062B                     u751:	
  4113  062B  2E37               	goto	l1594
  4114  062C                     u750:	
  4115  062C                     l1588:	
  4116  062C  0020               	movlb	0	; select bank0
  4117  062D  0848               	movf	_prev_steps,w
  4118  062E  1903               	btfsc	3,2
  4119  062F  2E31               	goto	u761
  4120  0630  2E32               	goto	u760
  4121  0631                     u761:	
  4122  0631  2E37               	goto	l1594
  4123  0632                     u760:	
  4124  0632                     l1590:	
  4125                           
  4126                           ;code/rev.c: 51:           i2c_registers[8] = 0;
  4127  0632  01C6               	clrf	_i2c_registers+8
  4128  0633                     l1592:	
  4129                           
  4130                           ;code/rev.c: 52:           stop_timer();
  4131  0633  3183  23CF  3186   	fcall	_stop_timer
  4132                           
  4133                           ;code/rev.c: 53:      }
  4134  0636  2E44               	goto	l1598
  4135  0637                     l1594:	
  4136  0637  087C               	movf	update_rev@steps_buf,w
  4137  0638  0020               	movlb	0	; select bank0
  4138  0639  0248               	subwf	_prev_steps,w
  4139  063A  1803               	skipnc
  4140  063B  2E3D               	goto	u771
  4141  063C  2E3E               	goto	u770
  4142  063D                     u771:	
  4143  063D  2E44               	goto	l1598
  4144  063E                     u770:	
  4145  063E                     l1596:	
  4146                           
  4147                           ;code/rev.c: 55:           start_timer();
  4148  063E  3183  23CC  3186   	fcall	_start_timer
  4149                           
  4150                           ;code/rev.c: 56:           reset_timer();
  4151  0641  3183  23D6  3186   	fcall	_reset_timer
  4152  0644                     l1598:	
  4153                           
  4154                           ;code/rev.c: 58:      prev_steps = steps_buf;
  4155  0644  087C               	movf	update_rev@steps_buf,w
  4156  0645  00F9               	movwf	??_update_rev
  4157  0646  0879               	movf	??_update_rev,w
  4158  0647  0020               	movlb	0	; select bank0
  4159  0648  00C8               	movwf	_prev_steps
  4160  0649                     l328:	
  4161  0649  0008               	return
  4162  064A                     __end_of_update_rev:	
  4163                           
  4164                           	psect	text2
  4165  03CF                     __ptext2:	
  4166 ;; *************** function _stop_timer *****************
  4167 ;; Defined at:
  4168 ;;		line 29 in file "code/rev.c"
  4169 ;; Parameters:    Size  Location     Type
  4170 ;;		None
  4171 ;; Auto vars:     Size  Location     Type
  4172 ;;		None
  4173 ;; Return value:  Size  Location     Type
  4174 ;;                  1    wreg      void 
  4175 ;; Registers used:
  4176 ;;		None
  4177 ;; Tracked objects:
  4178 ;;		On entry : 0/0
  4179 ;;		On exit  : 0/0
  4180 ;;		Unchanged: 0/0
  4181 ;; Data sizes:     COMMON   BANK0   BANK1   BANK2   BANK3   BANK4   BANK5   BANK6
  4182 ;;      Params:         0       0       0       0       0       0       0       0
  4183 ;;      Locals:         0       0       0       0       0       0       0       0
  4184 ;;      Temps:          0       0       0       0       0       0       0       0
  4185 ;;      Totals:         0       0       0       0       0       0       0       0
  4186 ;;Total ram usage:        0 bytes
  4187 ;; Hardware stack levels used:    1
  4188 ;; This function calls:
  4189 ;;		Nothing
  4190 ;; This function is called by:
  4191 ;;		_update_rev
  4192 ;; This function uses a non-reentrant model
  4193 ;;
  4194                           
  4195                           
  4196                           ;psect for function _stop_timer
  4197  03CF                     _stop_timer:	
  4198  03CF                     l1538:	
  4199                           ;incstack = 0
  4200                           ; Regs used in _stop_timer: []
  4201                           
  4202                           
  4203                           ;code/rev.c: 30:      T3CONbits.ON = 0;
  4204  03CF  0020               	movlb	0	; select bank0
  4205  03D0  101E               	bcf	30,0	;volatile
  4206  03D1                     l315:	
  4207  03D1  0008               	return
  4208  03D2                     __end_of_stop_timer:	
  4209                           
  4210                           	psect	text3
  4211  03CC                     __ptext3:	
  4212 ;; *************** function _start_timer *****************
  4213 ;; Defined at:
  4214 ;;		line 33 in file "code/rev.c"
  4215 ;; Parameters:    Size  Location     Type
  4216 ;;		None
  4217 ;; Auto vars:     Size  Location     Type
  4218 ;;		None
  4219 ;; Return value:  Size  Location     Type
  4220 ;;                  1    wreg      void 
  4221 ;; Registers used:
  4222 ;;		None
  4223 ;; Tracked objects:
  4224 ;;		On entry : 0/0
  4225 ;;		On exit  : 0/0
  4226 ;;		Unchanged: 0/0
  4227 ;; Data sizes:     COMMON   BANK0   BANK1   BANK2   BANK3   BANK4   BANK5   BANK6
  4228 ;;      Params:         0       0       0       0       0       0       0       0
  4229 ;;      Locals:         0       0       0       0       0       0       0       0
  4230 ;;      Temps:          0       0       0       0       0       0       0       0
  4231 ;;      Totals:         0       0       0       0       0       0       0       0
  4232 ;;Total ram usage:        0 bytes
  4233 ;; Hardware stack levels used:    1
  4234 ;; This function calls:
  4235 ;;		Nothing
  4236 ;; This function is called by:
  4237 ;;		_update_rev
  4238 ;; This function uses a non-reentrant model
  4239 ;;
  4240                           
  4241                           
  4242                           ;psect for function _start_timer
  4243  03CC                     _start_timer:	
  4244  03CC                     l1540:	
  4245                           ;incstack = 0
  4246                           ; Regs used in _start_timer: []
  4247                           
  4248                           
  4249                           ;code/rev.c: 34:      T3CONbits.ON = 1;
  4250  03CC  0020               	movlb	0	; select bank0
  4251  03CD  141E               	bsf	30,0	;volatile
  4252  03CE                     l318:	
  4253  03CE  0008               	return
  4254  03CF                     __end_of_start_timer:	
  4255                           
  4256                           	psect	text4
  4257  03D6                     __ptext4:	
  4258 ;; *************** function _reset_timer *****************
  4259 ;; Defined at:
  4260 ;;		line 23 in file "code/rev.c"
  4261 ;; Parameters:    Size  Location     Type
  4262 ;;		None
  4263 ;; Auto vars:     Size  Location     Type
  4264 ;;		None
  4265 ;; Return value:  Size  Location     Type
  4266 ;;                  1    wreg      void 
  4267 ;; Registers used:
  4268 ;;		status,2
  4269 ;; Tracked objects:
  4270 ;;		On entry : 0/0
  4271 ;;		On exit  : 0/0
  4272 ;;		Unchanged: 0/0
  4273 ;; Data sizes:     COMMON   BANK0   BANK1   BANK2   BANK3   BANK4   BANK5   BANK6
  4274 ;;      Params:         0       0       0       0       0       0       0       0
  4275 ;;      Locals:         0       0       0       0       0       0       0       0
  4276 ;;      Temps:          0       0       0       0       0       0       0       0
  4277 ;;      Totals:         0       0       0       0       0       0       0       0
  4278 ;;Total ram usage:        0 bytes
  4279 ;; Hardware stack levels used:    1
  4280 ;; This function calls:
  4281 ;;		Nothing
  4282 ;; This function is called by:
  4283 ;;		_update_rev
  4284 ;; This function uses a non-reentrant model
  4285 ;;
  4286                           
  4287                           
  4288                           ;psect for function _reset_timer
  4289  03D6                     _reset_timer:	
  4290  03D6                     l1536:	
  4291                           ;incstack = 0
  4292                           ; Regs used in _reset_timer: [status,2]
  4293                           
  4294                           
  4295                           ;code/rev.c: 24:      TMR3L = 0;
  4296  03D6  0020               	movlb	0	; select bank0
  4297  03D7  019C               	clrf	28	;volatile
  4298                           
  4299                           ;code/rev.c: 25:      TMR3H = 0;
  4300  03D8  019D               	clrf	29	;volatile
  4301                           
  4302                           ;code/rev.c: 26:      TMR3L = 0;
  4303  03D9  019C               	clrf	28	;volatile
  4304  03DA                     l312:	
  4305  03DA  0008               	return
  4306  03DB                     __end_of_reset_timer:	
  4307                           
  4308                           	psect	text5
  4309  049D                     __ptext5:	
  4310 ;; *************** function _get_timer *****************
  4311 ;; Defined at:
  4312 ;;		line 14 in file "code/rev.c"
  4313 ;; Parameters:    Size  Location     Type
  4314 ;;		None
  4315 ;; Auto vars:     Size  Location     Type
  4316 ;;  h               1    8[COMMON] unsigned char 
  4317 ;;  l               1    7[COMMON] unsigned char 
  4318 ;; Return value:  Size  Location     Type
  4319 ;;                  2    0[COMMON] short 
  4320 ;; Registers used:
  4321 ;;		wreg, status,2, status,0
  4322 ;; Tracked objects:
  4323 ;;		On entry : 0/0
  4324 ;;		On exit  : 0/0
  4325 ;;		Unchanged: 0/0
  4326 ;; Data sizes:     COMMON   BANK0   BANK1   BANK2   BANK3   BANK4   BANK5   BANK6
  4327 ;;      Params:         2       0       0       0       0       0       0       0
  4328 ;;      Locals:         2       0       0       0       0       0       0       0
  4329 ;;      Temps:          5       0       0       0       0       0       0       0
  4330 ;;      Totals:         9       0       0       0       0       0       0       0
  4331 ;;Total ram usage:        9 bytes
  4332 ;; Hardware stack levels used:    1
  4333 ;; This function calls:
  4334 ;;		Nothing
  4335 ;; This function is called by:
  4336 ;;		_update_rev
  4337 ;; This function uses a non-reentrant model
  4338 ;;
  4339                           
  4340                           
  4341                           ;psect for function _get_timer
  4342  049D                     _get_timer:	
  4343  049D                     l307:	
  4344                           ;incstack = 0
  4345                           ; Regs used in _get_timer: [wreg+status,2+status,0]
  4346                           ;code/rev.c: 15:      u8 h,l;;code/rev.c: 16:      do{
  4347                           
  4348  049D                     l1530:	
  4349                           
  4350                           ;code/rev.c: 17:           h = TMR3H;
  4351  049D  0020               	movlb	0	; select bank0
  4352  049E  081D               	movf	29,w	;volatile
  4353  049F  00F2               	movwf	??_get_timer
  4354  04A0  0872               	movf	??_get_timer,w
  4355  04A1  00F8               	movwf	get_timer@h
  4356                           
  4357                           ;code/rev.c: 18:           l = TMR3L;
  4358  04A2  081C               	movf	28,w	;volatile
  4359  04A3  00F2               	movwf	??_get_timer
  4360  04A4  0872               	movf	??_get_timer,w
  4361  04A5  00F7               	movwf	get_timer@l
  4362                           
  4363                           ;code/rev.c: 19:      }while(h != TMR3H);
  4364  04A6  0878               	movf	get_timer@h,w
  4365  04A7  061D               	xorwf	29,w	;volatile
  4366  04A8  1D03               	skipz
  4367  04A9  2CAB               	goto	u711
  4368  04AA  2CAC               	goto	u710
  4369  04AB                     u711:	
  4370  04AB  2C9D               	goto	l307
  4371  04AC                     u710:	
  4372  04AC                     l1532:	
  4373                           
  4374                           ;code/rev.c: 20:      return (h<<8) + l;
  4375  04AC  0877               	movf	get_timer@l,w
  4376  04AD  00F2               	movwf	??_get_timer
  4377  04AE  01F3               	clrf	??_get_timer+1
  4378  04AF  0878               	movf	get_timer@h,w
  4379  04B0  00F4               	movwf	??_get_timer+2
  4380  04B1  01F5               	clrf	??_get_timer+3
  4381  04B2  0874               	movf	??_get_timer+2,w
  4382  04B3  00F5               	movwf	??_get_timer+3
  4383  04B4  01F4               	clrf	??_get_timer+2
  4384  04B5  0872               	movf	??_get_timer,w
  4385  04B6  0774               	addwf	??_get_timer+2,w
  4386  04B7  00F0               	movwf	?_get_timer
  4387  04B8  0873               	movf	??_get_timer+1,w
  4388  04B9  3D75               	addwfc	??_get_timer+3,w
  4389  04BA  00F1               	movwf	?_get_timer+1
  4390  04BB                     l309:	
  4391  04BB  0008               	return
  4392  04BC                     __end_of_get_timer:	
  4393                           
  4394                           	psect	text6
  4395  03D2                     __ptext6:	
  4396 ;; *************** function _update_motors *****************
  4397 ;; Defined at:
  4398 ;;		line 42 in file "code/motors.c"
  4399 ;; Parameters:    Size  Location     Type
  4400 ;;		None
  4401 ;; Auto vars:     Size  Location     Type
  4402 ;;		None
  4403 ;; Return value:  Size  Location     Type
  4404 ;;                  1    wreg      void 
  4405 ;; Registers used:
  4406 ;;		wreg, fsr0l, fsr0h, fsr1l, fsr1h, status,2, status,0, pclath, cstack
  4407 ;; Tracked objects:
  4408 ;;		On entry : 0/0
  4409 ;;		On exit  : 0/0
  4410 ;;		Unchanged: 0/0
  4411 ;; Data sizes:     COMMON   BANK0   BANK1   BANK2   BANK3   BANK4   BANK5   BANK6
  4412 ;;      Params:         0       0       0       0       0       0       0       0
  4413 ;;      Locals:         0       0       0       0       0       0       0       0
  4414 ;;      Temps:          0       0       0       0       0       0       0       0
  4415 ;;      Totals:         0       0       0       0       0       0       0       0
  4416 ;;Total ram usage:        0 bytes
  4417 ;; Hardware stack levels used:    1
  4418 ;; Hardware stack levels required when called:    4
  4419 ;; This function calls:
  4420 ;;		_update_ctl
  4421 ;; This function is called by:
  4422 ;;		_main
  4423 ;; This function uses a non-reentrant model
  4424 ;;
  4425                           
  4426                           
  4427                           ;psect for function _update_motors
  4428  03D2                     _update_motors:	
  4429  03D2                     l1572:	
  4430                           ;incstack = 0
  4431                           ; Regs used in _update_motors: [wreg-fsr1h+status,2+status,0+pclath+cstack]
  4432                           
  4433                           
  4434                           ;code/motors.c: 44:      update_ctl();
  4435  03D2  3185  2589  3183   	fcall	_update_ctl
  4436  03D5                     l160:	
  4437  03D5  0008               	return
  4438  03D6                     __end_of_update_motors:	
  4439                           
  4440                           	psect	text7
  4441  0589                     __ptext7:	
  4442 ;; *************** function _update_ctl *****************
  4443 ;; Defined at:
  4444 ;;		line 30 in file "code/motors.c"
  4445 ;; Parameters:    Size  Location     Type
  4446 ;;		None
  4447 ;; Auto vars:     Size  Location     Type
  4448 ;;  i               1   15[BANK0 ] unsigned char 
  4449 ;;  c               1   14[BANK0 ] unsigned char 
  4450 ;; Return value:  Size  Location     Type
  4451 ;;                  1    wreg      void 
  4452 ;; Registers used:
  4453 ;;		wreg, fsr0l, fsr0h, fsr1l, fsr1h, status,2, status,0, pclath, cstack
  4454 ;; Tracked objects:
  4455 ;;		On entry : 0/0
  4456 ;;		On exit  : 0/0
  4457 ;;		Unchanged: 0/0
  4458 ;; Data sizes:     COMMON   BANK0   BANK1   BANK2   BANK3   BANK4   BANK5   BANK6
  4459 ;;      Params:         0       0       0       0       0       0       0       0
  4460 ;;      Locals:         0       2       0       0       0       0       0       0
  4461 ;;      Temps:          0       2       0       0       0       0       0       0
  4462 ;;      Totals:         0       4       0       0       0       0       0       0
  4463 ;;Total ram usage:        4 bytes
  4464 ;; Hardware stack levels used:    1
  4465 ;; Hardware stack levels required when called:    3
  4466 ;; This function calls:
  4467 ;;		_set_motor
  4468 ;;		_set_pwm_mode
  4469 ;; This function is called by:
  4470 ;;		_update_motors
  4471 ;; This function uses a non-reentrant model
  4472 ;;
  4473                           
  4474                           
  4475                           ;psect for function _update_ctl
  4476  0589                     _update_ctl:	
  4477  0589                     l1506:	
  4478                           ;incstack = 0
  4479                           ; Regs used in _update_ctl: [wreg-fsr1h+status,2+status,0+pclath+cstack]
  4480                           
  4481                           
  4482                           ;code/motors.c: 32:      u8 c = i2c_registers[0];
  4483  0589  0020               	movlb	0	; select bank0
  4484  058A  083E               	movf	_i2c_registers,w
  4485  058B  00AC               	movwf	??_update_ctl
  4486  058C  082C               	movf	??_update_ctl,w
  4487  058D  00AE               	movwf	update_ctl@c
  4488  058E                     l1508:	
  4489                           
  4490                           ;code/motors.c: 33:      for(u8 i=1;i<=4;++i){
  4491  058E  01AF               	clrf	update_ctl@i
  4492  058F  0AAF               	incf	update_ctl@i,f
  4493  0590                     l1512:	
  4494                           
  4495                           ;code/motors.c: 34:    if(c & (0b1000<<i)){
  4496  0590  3008               	movlw	8
  4497  0591  00AC               	movwf	??_update_ctl
  4498  0592  0A2F               	incf	update_ctl@i,w
  4499  0593  2D95               	goto	u624
  4500  0594                     u625:	
  4501  0594  35AC               	lslf	??_update_ctl,f
  4502  0595                     u624:	
  4503  0595  0B89               	decfsz	9,f
  4504  0596  2D94               	goto	u625
  4505  0597  082C               	movf	??_update_ctl,w
  4506  0598  052E               	andwf	update_ctl@c,w
  4507  0599  1903               	btfsc	3,2
  4508  059A  2D9C               	goto	u631
  4509  059B  2D9D               	goto	u630
  4510  059C                     u631:	
  4511  059C  2DB2               	goto	l1516
  4512  059D                     u630:	
  4513  059D                     l1514:	
  4514                           
  4515                           ;code/motors.c: 35:         set_motor(i,i2c_registers[(i<<1)-1],i2c_registers[(i<<1)]);
  4516  059D  352F               	lslf	update_ctl@i,w
  4517  059E  3E3D               	addlw	(low ((_i2c_registers| 0+255)))& (0+255)
  4518  059F  0086               	movwf	6
  4519  05A0  0187               	clrf	7
  4520  05A1  0801               	movf	1,w
  4521  05A2  00AC               	movwf	??_update_ctl
  4522  05A3  082C               	movf	??_update_ctl,w
  4523  05A4  00AA               	movwf	set_motor@dir
  4524  05A5  352F               	lslf	update_ctl@i,w
  4525  05A6  3E3E               	addlw	(low (_i2c_registers| 0))& (0+255)
  4526  05A7  0086               	movwf	6
  4527  05A8  0187               	clrf	7
  4528  05A9  0801               	movf	1,w
  4529  05AA  00AD               	movwf	??_update_ctl+1
  4530  05AB  082D               	movf	??_update_ctl+1,w
  4531  05AC  00AB               	movwf	set_motor@pwm
  4532  05AD  082F               	movf	update_ctl@i,w
  4533  05AE  3186  26A2  3185   	fcall	_set_motor
  4534                           
  4535                           ;code/motors.c: 36:    }else{
  4536  05B1  2DBA               	goto	l1518
  4537  05B2                     l1516:	
  4538                           
  4539                           ;code/motors.c: 37:         set_pwm_mode(i,'O');
  4540  05B2  304F               	movlw	79
  4541  05B3  00AC               	movwf	??_update_ctl
  4542  05B4  082C               	movf	??_update_ctl,w
  4543  05B5  00F5               	movwf	set_pwm_mode@mode
  4544  05B6  082F               	movf	update_ctl@i,w
  4545  05B7  3184  2443  3185   	fcall	_set_pwm_mode
  4546  05BA                     l1518:	
  4547                           
  4548                           ;code/motors.c: 39:      }
  4549  05BA  3001               	movlw	1
  4550  05BB  0020               	movlb	0	; select bank0
  4551  05BC  00AC               	movwf	??_update_ctl
  4552  05BD  082C               	movf	??_update_ctl,w
  4553  05BE  07AF               	addwf	update_ctl@i,f
  4554  05BF                     l1520:	
  4555  05BF  3005               	movlw	5
  4556  05C0  022F               	subwf	update_ctl@i,w
  4557  05C1  1C03               	skipc
  4558  05C2  2DC4               	goto	u641
  4559  05C3  2DC5               	goto	u640
  4560  05C4                     u641:	
  4561  05C4  2D90               	goto	l1512
  4562  05C5                     u640:	
  4563  05C5                     l157:	
  4564  05C5  0008               	return
  4565  05C6                     __end_of_update_ctl:	
  4566                           
  4567                           	psect	text8
  4568  06A2                     __ptext8:	
  4569 ;; *************** function _set_motor *****************
  4570 ;; Defined at:
  4571 ;;		line 6 in file "code/motors.c"
  4572 ;; Parameters:    Size  Location     Type
  4573 ;;  motor           1    wreg     unsigned char 
  4574 ;;  dir             1   10[BANK0 ] unsigned char 
  4575 ;;  pwm             1   11[BANK0 ] unsigned char 
  4576 ;; Auto vars:     Size  Location     Type
  4577 ;;  motor           1   13[COMMON] unsigned char 
  4578 ;; Return value:  Size  Location     Type
  4579 ;;                  1    wreg      void 
  4580 ;; Registers used:
  4581 ;;		wreg, fsr0l, fsr0h, fsr1l, fsr1h, status,2, status,0, pclath, cstack
  4582 ;; Tracked objects:
  4583 ;;		On entry : 0/0
  4584 ;;		On exit  : 0/0
  4585 ;;		Unchanged: 0/0
  4586 ;; Data sizes:     COMMON   BANK0   BANK1   BANK2   BANK3   BANK4   BANK5   BANK6
  4587 ;;      Params:         0       2       0       0       0       0       0       0
  4588 ;;      Locals:         1       0       0       0       0       0       0       0
  4589 ;;      Temps:          2       0       0       0       0       0       0       0
  4590 ;;      Totals:         3       2       0       0       0       0       0       0
  4591 ;;Total ram usage:        5 bytes
  4592 ;; Hardware stack levels used:    1
  4593 ;; Hardware stack levels required when called:    2
  4594 ;; This function calls:
  4595 ;;		_set_pwm
  4596 ;;		_set_pwm_mode
  4597 ;; This function is called by:
  4598 ;;		_update_ctl
  4599 ;; This function uses a non-reentrant model
  4600 ;;
  4601                           
  4602                           
  4603                           ;psect for function _set_motor
  4604  06A2                     _set_motor:	
  4605                           
  4606                           ;incstack = 0
  4607                           ; Regs used in _set_motor: [wreg-fsr1h+status,2+status,0+pclath+cstack]
  4608                           ;set_motor@motor stored from wreg
  4609  06A2  00FD               	movwf	set_motor@motor
  4610  06A3                     l1458:	
  4611                           
  4612                           ;code/motors.c: 6: void set_motor(u8 motor,u8 dir,u8 pwm);code/motors.c: 7: {;code/motor
      +                          s.c: 8:      switch(dir){
  4613  06A3  2EE4               	goto	l1478
  4614  06A4                     l1460:	
  4615                           
  4616                           ;code/motors.c: 10:    set_pwm_mode(motor,'S');
  4617  06A4  3053               	movlw	83
  4618  06A5  00FB               	movwf	??_set_motor
  4619  06A6  087B               	movf	??_set_motor,w
  4620  06A7  00F5               	movwf	set_pwm_mode@mode
  4621  06A8  087D               	movf	set_motor@motor,w
  4622  06A9  3184  2443  3186   	fcall	_set_pwm_mode
  4623  06AC                     l1462:	
  4624                           
  4625                           ;code/motors.c: 11:    set_pwm(motor,0);
  4626  06AC  01F0               	clrf	set_pwm@pwm
  4627  06AD  087D               	movf	set_motor@motor,w
  4628  06AE  3186  264A  3186   	fcall	_set_pwm
  4629                           
  4630                           ;code/motors.c: 12:    break;
  4631  06B1  2EFB               	goto	l150
  4632  06B2                     l1464:	
  4633                           
  4634                           ;code/motors.c: 14:    set_pwm_mode(motor,'C');
  4635  06B2  3043               	movlw	67
  4636  06B3  00FB               	movwf	??_set_motor
  4637  06B4  087B               	movf	??_set_motor,w
  4638  06B5  00F5               	movwf	set_pwm_mode@mode
  4639  06B6  087D               	movf	set_motor@motor,w
  4640  06B7  3184  2443  3186   	fcall	_set_pwm_mode
  4641  06BA                     l1466:	
  4642                           
  4643                           ;code/motors.c: 15:    set_pwm(motor,pwm);
  4644  06BA  0020               	movlb	0	; select bank0
  4645  06BB  082B               	movf	set_motor@pwm,w
  4646  06BC  00FB               	movwf	??_set_motor
  4647  06BD  087B               	movf	??_set_motor,w
  4648  06BE  00F0               	movwf	set_pwm@pwm
  4649  06BF  087D               	movf	set_motor@motor,w
  4650  06C0  3186  264A  3186   	fcall	_set_pwm
  4651                           
  4652                           ;code/motors.c: 16:    break;
  4653  06C3  2EFB               	goto	l150
  4654  06C4                     l1468:	
  4655                           
  4656                           ;code/motors.c: 18:    set_pwm_mode(motor,'A');
  4657  06C4  3041               	movlw	65
  4658  06C5  00FB               	movwf	??_set_motor
  4659  06C6  087B               	movf	??_set_motor,w
  4660  06C7  00F5               	movwf	set_pwm_mode@mode
  4661  06C8  087D               	movf	set_motor@motor,w
  4662  06C9  3184  2443  3186   	fcall	_set_pwm_mode
  4663  06CC                     l1470:	
  4664                           
  4665                           ;code/motors.c: 19:    set_pwm(motor,pwm);
  4666  06CC  0020               	movlb	0	; select bank0
  4667  06CD  082B               	movf	set_motor@pwm,w
  4668  06CE  00FB               	movwf	??_set_motor
  4669  06CF  087B               	movf	??_set_motor,w
  4670  06D0  00F0               	movwf	set_pwm@pwm
  4671  06D1  087D               	movf	set_motor@motor,w
  4672  06D2  3186  264A  3186   	fcall	_set_pwm
  4673                           
  4674                           ;code/motors.c: 20:    break;
  4675  06D5  2EFB               	goto	l150
  4676  06D6                     l1472:	
  4677                           
  4678                           ;code/motors.c: 22:    set_pwm_mode(motor,'O');
  4679  06D6  304F               	movlw	79
  4680  06D7  00FB               	movwf	??_set_motor
  4681  06D8  087B               	movf	??_set_motor,w
  4682  06D9  00F5               	movwf	set_pwm_mode@mode
  4683  06DA  087D               	movf	set_motor@motor,w
  4684  06DB  3184  2443  3186   	fcall	_set_pwm_mode
  4685  06DE                     l1474:	
  4686                           
  4687                           ;code/motors.c: 23:    set_pwm(motor,0);
  4688  06DE  01F0               	clrf	set_pwm@pwm
  4689  06DF  087D               	movf	set_motor@motor,w
  4690  06E0  3186  264A  3186   	fcall	_set_pwm
  4691                           
  4692                           ;code/motors.c: 24:    break;
  4693  06E3  2EFB               	goto	l150
  4694  06E4                     l1478:	
  4695  06E4  0020               	movlb	0	; select bank0
  4696  06E5  082A               	movf	set_motor@dir,w
  4697  06E6  00FB               	movwf	??_set_motor
  4698  06E7  01FC               	clrf	??_set_motor+1
  4699                           
  4700                           ; Switch on 2 bytes has been partitioned into a top level switch of size 1, and 1 sub-sw
      +                          itches
  4701                           ; Switch size 1, requested type "simple"
  4702                           ; Number of cases is 1, Range of values is 0 to 0
  4703                           ; switch strategies available:
  4704                           ; Name         Instructions Cycles
  4705                           ; simple_byte            4     3 (average)
  4706                           ; direct_byte            8     6 (fixed)
  4707                           ; jumptable            260     6 (fixed)
  4708                           ;	Chosen strategy is simple_byte
  4709  06E8  087C               	movf	??_set_motor+1,w
  4710  06E9  3A00               	xorlw	0	; case 0
  4711  06EA  1903               	skipnz
  4712  06EB  2EED               	goto	l1728
  4713  06EC  2EFB               	goto	l150
  4714  06ED                     l1728:	
  4715                           
  4716                           ; Switch size 1, requested type "simple"
  4717                           ; Number of cases is 4, Range of values is 0 to 3
  4718                           ; switch strategies available:
  4719                           ; Name         Instructions Cycles
  4720                           ; simple_byte           13     7 (average)
  4721                           ; direct_byte           14     6 (fixed)
  4722                           ; jumptable            260     6 (fixed)
  4723                           ;	Chosen strategy is simple_byte
  4724  06ED  087B               	movf	??_set_motor,w
  4725  06EE  3A00               	xorlw	0	; case 0
  4726  06EF  1903               	skipnz
  4727  06F0  2EA4               	goto	l1460
  4728  06F1  3A01               	xorlw	1	; case 1
  4729  06F2  1903               	skipnz
  4730  06F3  2EB2               	goto	l1464
  4731  06F4  3A03               	xorlw	3	; case 2
  4732  06F5  1903               	skipnz
  4733  06F6  2EC4               	goto	l1468
  4734  06F7  3A01               	xorlw	1	; case 3
  4735  06F8  1903               	skipnz
  4736  06F9  2ED6               	goto	l1472
  4737  06FA  2EFB               	goto	l150
  4738  06FB                     l150:	
  4739  06FB  0008               	return
  4740  06FC                     __end_of_set_motor:	
  4741                           
  4742                           	psect	text9
  4743  0443                     __ptext9:	
  4744 ;; *************** function _set_pwm_mode *****************
  4745 ;; Defined at:
  4746 ;;		line 141 in file "code/pwm.c"
  4747 ;; Parameters:    Size  Location     Type
  4748 ;;  motor           1    wreg     unsigned char 
  4749 ;;  mode            1    5[COMMON] unsigned char 
  4750 ;; Auto vars:     Size  Location     Type
  4751 ;;  motor           1    8[COMMON] unsigned char 
  4752 ;;  b               1   10[COMMON] unsigned char 
  4753 ;;  a               1    9[COMMON] unsigned char 
  4754 ;; Return value:  Size  Location     Type
  4755 ;;                  1    wreg      void 
  4756 ;; Registers used:
  4757 ;;		wreg, fsr0l, fsr0h, fsr1l, fsr1h, status,2, status,0, pclath, cstack
  4758 ;; Tracked objects:
  4759 ;;		On entry : 0/0
  4760 ;;		On exit  : 0/0
  4761 ;;		Unchanged: 0/0
  4762 ;; Data sizes:     COMMON   BANK0   BANK1   BANK2   BANK3   BANK4   BANK5   BANK6
  4763 ;;      Params:         1       0       0       0       0       0       0       0
  4764 ;;      Locals:         3       0       0       0       0       0       0       0
  4765 ;;      Temps:          2       0       0       0       0       0       0       0
  4766 ;;      Totals:         6       0       0       0       0       0       0       0
  4767 ;;Total ram usage:        6 bytes
  4768 ;; Hardware stack levels used:    1
  4769 ;; Hardware stack levels required when called:    1
  4770 ;; This function calls:
  4771 ;;		_get_a_val
  4772 ;;		_get_b_val
  4773 ;;		_set_motor_pps
  4774 ;; This function is called by:
  4775 ;;		_set_motor
  4776 ;;		_update_ctl
  4777 ;; This function uses a non-reentrant model
  4778 ;;
  4779                           
  4780                           
  4781                           ;psect for function _set_pwm_mode
  4782  0443                     _set_pwm_mode:	
  4783                           
  4784                           ;incstack = 0
  4785                           ; Regs used in _set_pwm_mode: [wreg-fsr1h+status,2+status,0+pclath+cstack]
  4786                           ;set_pwm_mode@motor stored from wreg
  4787  0443  00F8               	movwf	set_pwm_mode@motor
  4788  0444                     l1410:	
  4789                           
  4790                           ;code/pwm.c: 141: void set_pwm_mode(u8 motor,char mode);code/pwm.c: 142: {;code/pwm.c: 1
      +                          43:      u8 a = get_a_val(mode);
  4791  0444  0875               	movf	set_pwm_mode@mode,w
  4792  0445  3184  245F  3184   	fcall	_get_a_val
  4793  0448  00F6               	movwf	??_set_pwm_mode
  4794  0449  0876               	movf	??_set_pwm_mode,w
  4795  044A  00F9               	movwf	set_pwm_mode@a
  4796                           
  4797                           ;code/pwm.c: 144:      u8 b = get_b_val(mode);
  4798  044B  0875               	movf	set_pwm_mode@mode,w
  4799  044C  3184  247E  3184   	fcall	_get_b_val
  4800  044F  00F6               	movwf	??_set_pwm_mode
  4801  0450  0876               	movf	??_set_pwm_mode,w
  4802  0451  00FA               	movwf	set_pwm_mode@b
  4803  0452                     l1412:	
  4804                           
  4805                           ;code/pwm.c: 145:      set_motor_pps(motor,a,b);
  4806  0452  0879               	movf	set_pwm_mode@a,w
  4807  0453  00F6               	movwf	??_set_pwm_mode
  4808  0454  0876               	movf	??_set_pwm_mode,w
  4809  0455  00F0               	movwf	set_motor_pps@a_mode
  4810  0456  087A               	movf	set_pwm_mode@b,w
  4811  0457  00F7               	movwf	??_set_pwm_mode+1
  4812  0458  0877               	movf	??_set_pwm_mode+1,w
  4813  0459  00F1               	movwf	set_motor_pps@b_mode
  4814  045A  0878               	movf	set_pwm_mode@motor,w
  4815  045B  3186  26FC  3184   	fcall	_set_motor_pps
  4816  045E                     l274:	
  4817  045E  0008               	return
  4818  045F                     __end_of_set_pwm_mode:	
  4819                           
  4820                           	psect	text10
  4821  047E                     __ptext10:	
  4822 ;; *************** function _get_b_val *****************
  4823 ;; Defined at:
  4824 ;;		line 81 in file "code/pwm.c"
  4825 ;; Parameters:    Size  Location     Type
  4826 ;;  mode            1    wreg     unsigned char 
  4827 ;; Auto vars:     Size  Location     Type
  4828 ;;  mode            1    2[COMMON] unsigned char 
  4829 ;; Return value:  Size  Location     Type
  4830 ;;                  1    wreg      unsigned char 
  4831 ;; Registers used:
  4832 ;;		wreg, fsr0l, fsr0h, status,2, status,0
  4833 ;; Tracked objects:
  4834 ;;		On entry : 0/0
  4835 ;;		On exit  : 0/0
  4836 ;;		Unchanged: 0/0
  4837 ;; Data sizes:     COMMON   BANK0   BANK1   BANK2   BANK3   BANK4   BANK5   BANK6
  4838 ;;      Params:         0       0       0       0       0       0       0       0
  4839 ;;      Locals:         1       0       0       0       0       0       0       0
  4840 ;;      Temps:          2       0       0       0       0       0       0       0
  4841 ;;      Totals:         3       0       0       0       0       0       0       0
  4842 ;;Total ram usage:        3 bytes
  4843 ;; Hardware stack levels used:    1
  4844 ;; This function calls:
  4845 ;;		Nothing
  4846 ;; This function is called by:
  4847 ;;		_set_pwm_mode
  4848 ;; This function uses a non-reentrant model
  4849 ;;
  4850                           
  4851                           
  4852                           ;psect for function _get_b_val
  4853  047E                     _get_b_val:	
  4854                           
  4855                           ;incstack = 0
  4856                           ; Regs used in _get_b_val: [wreg-fsr0h+status,2+status,0]
  4857                           ;get_b_val@mode stored from wreg
  4858  047E  00F2               	movwf	get_b_val@mode
  4859  047F                     l1384:	
  4860                           
  4861                           ;code/pwm.c: 81: static u8 get_b_val(char mode);code/pwm.c: 82: {;code/pwm.c: 83:      s
      +                          witch(mode){
  4862  047F  2C86               	goto	l1404
  4863  0480                     l1386:	
  4864                           
  4865                           ;code/pwm.c: 85:    return 1;
  4866  0480  3001               	movlw	1
  4867  0481  2C9C               	goto	l247
  4868  0482                     l1390:	
  4869                           
  4870                           ;code/pwm.c: 87:    return 2;
  4871  0482  3002               	movlw	2
  4872  0483  2C9C               	goto	l247
  4873  0484                     l1398:	
  4874                           
  4875                           ;code/pwm.c: 92:    return 0;
  4876  0484  3000               	movlw	0
  4877  0485  2C9C               	goto	l247
  4878  0486                     l1404:	
  4879  0486  0872               	movf	get_b_val@mode,w
  4880  0487  00F0               	movwf	??_get_b_val
  4881  0488  01F1               	clrf	??_get_b_val+1
  4882                           
  4883                           ; Switch on 2 bytes has been partitioned into a top level switch of size 1, and 1 sub-sw
      +                          itches
  4884                           ; Switch size 1, requested type "simple"
  4885                           ; Number of cases is 1, Range of values is 0 to 0
  4886                           ; switch strategies available:
  4887                           ; Name         Instructions Cycles
  4888                           ; simple_byte            4     3 (average)
  4889                           ; direct_byte            8     6 (fixed)
  4890                           ; jumptable            260     6 (fixed)
  4891                           ;	Chosen strategy is simple_byte
  4892  0489  0871               	movf	??_get_b_val+1,w
  4893  048A  3A00               	xorlw	0	; case 0
  4894  048B  1903               	skipnz
  4895  048C  2C8E               	goto	l1730
  4896  048D  2C84               	goto	l1398
  4897  048E                     l1730:	
  4898                           
  4899                           ; Switch size 1, requested type "simple"
  4900                           ; Number of cases is 4, Range of values is 65 to 83
  4901                           ; switch strategies available:
  4902                           ; Name         Instructions Cycles
  4903                           ; simple_byte           13     7 (average)
  4904                           ; direct_byte           47     9 (fixed)
  4905                           ; jumptable            263     9 (fixed)
  4906                           ;	Chosen strategy is simple_byte
  4907  048E  0870               	movf	??_get_b_val,w
  4908  048F  3A41               	xorlw	65	; case 65
  4909  0490  1903               	skipnz
  4910  0491  2C80               	goto	l1386
  4911  0492  3A02               	xorlw	2	; case 67
  4912  0493  1903               	skipnz
  4913  0494  2C82               	goto	l1390
  4914  0495  3A0C               	xorlw	12	; case 79
  4915  0496  1903               	skipnz
  4916  0497  2C84               	goto	l1398
  4917  0498  3A1C               	xorlw	28	; case 83
  4918  0499  1903               	skipnz
  4919  049A  2C80               	goto	l1386
  4920  049B  2C84               	goto	l1398
  4921  049C                     l247:	
  4922  049C  0008               	return
  4923  049D                     __end_of_get_b_val:	
  4924                           
  4925                           	psect	text11
  4926  045F                     __ptext11:	
  4927 ;; *************** function _get_a_val *****************
  4928 ;; Defined at:
  4929 ;;		line 66 in file "code/pwm.c"
  4930 ;; Parameters:    Size  Location     Type
  4931 ;;  mode            1    wreg     unsigned char 
  4932 ;; Auto vars:     Size  Location     Type
  4933 ;;  mode            1    2[COMMON] unsigned char 
  4934 ;; Return value:  Size  Location     Type
  4935 ;;                  1    wreg      unsigned char 
  4936 ;; Registers used:
  4937 ;;		wreg, fsr0l, fsr0h, status,2, status,0
  4938 ;; Tracked objects:
  4939 ;;		On entry : 0/0
  4940 ;;		On exit  : 0/0
  4941 ;;		Unchanged: 0/0
  4942 ;; Data sizes:     COMMON   BANK0   BANK1   BANK2   BANK3   BANK4   BANK5   BANK6
  4943 ;;      Params:         0       0       0       0       0       0       0       0
  4944 ;;      Locals:         1       0       0       0       0       0       0       0
  4945 ;;      Temps:          2       0       0       0       0       0       0       0
  4946 ;;      Totals:         3       0       0       0       0       0       0       0
  4947 ;;Total ram usage:        3 bytes
  4948 ;; Hardware stack levels used:    1
  4949 ;; This function calls:
  4950 ;;		Nothing
  4951 ;; This function is called by:
  4952 ;;		_set_pwm_mode
  4953 ;; This function uses a non-reentrant model
  4954 ;;
  4955                           
  4956                           
  4957                           ;psect for function _get_a_val
  4958  045F                     _get_a_val:	
  4959                           
  4960                           ;incstack = 0
  4961                           ; Regs used in _get_a_val: [wreg-fsr0h+status,2+status,0]
  4962                           ;get_a_val@mode stored from wreg
  4963  045F  00F2               	movwf	get_a_val@mode
  4964  0460                     l1358:	
  4965                           
  4966                           ;code/pwm.c: 66: static u8 get_a_val(char mode);code/pwm.c: 67: {;code/pwm.c: 68:      s
      +                          witch(mode){
  4967  0460  2C67               	goto	l1378
  4968  0461                     l1360:	
  4969                           
  4970                           ;code/pwm.c: 70:    return 1;
  4971  0461  3001               	movlw	1
  4972  0462  2C7D               	goto	l237
  4973  0463                     l1368:	
  4974                           
  4975                           ;code/pwm.c: 74:    return 2;
  4976  0463  3002               	movlw	2
  4977  0464  2C7D               	goto	l237
  4978  0465                     l1372:	
  4979                           
  4980                           ;code/pwm.c: 77:    return 0;
  4981  0465  3000               	movlw	0
  4982  0466  2C7D               	goto	l237
  4983  0467                     l1378:	
  4984  0467  0872               	movf	get_a_val@mode,w
  4985  0468  00F0               	movwf	??_get_a_val
  4986  0469  01F1               	clrf	??_get_a_val+1
  4987                           
  4988                           ; Switch on 2 bytes has been partitioned into a top level switch of size 1, and 1 sub-sw
      +                          itches
  4989                           ; Switch size 1, requested type "simple"
  4990                           ; Number of cases is 1, Range of values is 0 to 0
  4991                           ; switch strategies available:
  4992                           ; Name         Instructions Cycles
  4993                           ; simple_byte            4     3 (average)
  4994                           ; direct_byte            8     6 (fixed)
  4995                           ; jumptable            260     6 (fixed)
  4996                           ;	Chosen strategy is simple_byte
  4997  046A  0871               	movf	??_get_a_val+1,w
  4998  046B  3A00               	xorlw	0	; case 0
  4999  046C  1903               	skipnz
  5000  046D  2C6F               	goto	l1732
  5001  046E  2C65               	goto	l1372
  5002  046F                     l1732:	
  5003                           
  5004                           ; Switch size 1, requested type "simple"
  5005                           ; Number of cases is 4, Range of values is 65 to 83
  5006                           ; switch strategies available:
  5007                           ; Name         Instructions Cycles
  5008                           ; simple_byte           13     7 (average)
  5009                           ; direct_byte           47     9 (fixed)
  5010                           ; jumptable            263     9 (fixed)
  5011                           ;	Chosen strategy is simple_byte
  5012  046F  0870               	movf	??_get_a_val,w
  5013  0470  3A41               	xorlw	65	; case 65
  5014  0471  1903               	skipnz
  5015  0472  2C63               	goto	l1368
  5016  0473  3A02               	xorlw	2	; case 67
  5017  0474  1903               	skipnz
  5018  0475  2C61               	goto	l1360
  5019  0476  3A0C               	xorlw	12	; case 79
  5020  0477  1903               	skipnz
  5021  0478  2C65               	goto	l1372
  5022  0479  3A1C               	xorlw	28	; case 83
  5023  047A  1903               	skipnz
  5024  047B  2C61               	goto	l1360
  5025  047C  2C65               	goto	l1372
  5026  047D                     l237:	
  5027  047D  0008               	return
  5028  047E                     __end_of_get_a_val:	
  5029                           
  5030                           	psect	text12
  5031  064A                     __ptext12:	
  5032 ;; *************** function _set_pwm *****************
  5033 ;; Defined at:
  5034 ;;		line 148 in file "code/pwm.c"
  5035 ;; Parameters:    Size  Location     Type
  5036 ;;  motor           1    wreg     unsigned char 
  5037 ;;  pwm             1    0[COMMON] unsigned char 
  5038 ;; Auto vars:     Size  Location     Type
  5039 ;;  motor           1    3[COMMON] unsigned char 
  5040 ;; Return value:  Size  Location     Type
  5041 ;;                  1    wreg      void 
  5042 ;; Registers used:
  5043 ;;		wreg, fsr0l, fsr0h, status,2, status,0
  5044 ;; Tracked objects:
  5045 ;;		On entry : 0/0
  5046 ;;		On exit  : 0/0
  5047 ;;		Unchanged: 0/0
  5048 ;; Data sizes:     COMMON   BANK0   BANK1   BANK2   BANK3   BANK4   BANK5   BANK6
  5049 ;;      Params:         1       0       0       0       0       0       0       0
  5050 ;;      Locals:         1       0       0       0       0       0       0       0
  5051 ;;      Temps:          2       0       0       0       0       0       0       0
  5052 ;;      Totals:         4       0       0       0       0       0       0       0
  5053 ;;Total ram usage:        4 bytes
  5054 ;; Hardware stack levels used:    1
  5055 ;; This function calls:
  5056 ;;		Nothing
  5057 ;; This function is called by:
  5058 ;;		_set_motor
  5059 ;; This function uses a non-reentrant model
  5060 ;;
  5061                           
  5062                           
  5063                           ;psect for function _set_pwm
  5064  064A                     _set_pwm:	
  5065                           
  5066                           ;incstack = 0
  5067                           ; Regs used in _set_pwm: [wreg-fsr0h+status,2+status,0]
  5068                           ;set_pwm@motor stored from wreg
  5069  064A  00F3               	movwf	set_pwm@motor
  5070  064B                     l1414:	
  5071                           
  5072                           ;code/pwm.c: 148: void set_pwm(u8 motor,u8 pwm);code/pwm.c: 149: {;code/pwm.c: 150:     
      +                           switch(motor){
  5073  064B  2E8B               	goto	l1430
  5074  064C                     l1416:	
  5075                           
  5076                           ;code/pwm.c: 152:    PWM3DCH = pwm >> 2;
  5077  064C  0870               	movf	set_pwm@pwm,w
  5078  064D  00F1               	movwf	??_set_pwm
  5079  064E  3002               	movlw	2
  5080  064F                     u525:	
  5081  064F  36F1               	lsrf	??_set_pwm,f
  5082  0650  0B89               	decfsz	9,f
  5083  0651  2E4F               	goto	u525
  5084  0652  0871               	movf	??_set_pwm,w
  5085  0653  002C               	movlb	12	; select bank12
  5086  0654  0095               	movwf	21	;volatile
  5087                           
  5088                           ;code/pwm.c: 153:    PWM3DCL = pwm << 6;
  5089  0655  0870               	movf	set_pwm@pwm,w
  5090  0656  00F1               	movwf	??_set_pwm
  5091  0657  3005               	movlw	5
  5092  0658                     u535:	
  5093  0658  35F1               	lslf	??_set_pwm,f
  5094  0659  3EFF               	addlw	-1
  5095  065A  1D03               	skipz
  5096  065B  2E58               	goto	u535
  5097  065C  3571               	lslf	??_set_pwm,w
  5098  065D  0094               	movwf	20	;volatile
  5099                           
  5100                           ;code/pwm.c: 154:    break;
  5101  065E  2EA1               	goto	l283
  5102  065F                     l1418:	
  5103                           
  5104                           ;code/pwm.c: 156:    PWM4DCH = pwm >> 2;
  5105  065F  0870               	movf	set_pwm@pwm,w
  5106  0660  00F1               	movwf	??_set_pwm
  5107  0661  3002               	movlw	2
  5108  0662                     u545:	
  5109  0662  36F1               	lsrf	??_set_pwm,f
  5110  0663  0B89               	decfsz	9,f
  5111  0664  2E62               	goto	u545
  5112  0665  0871               	movf	??_set_pwm,w
  5113  0666  002C               	movlb	12	; select bank12
  5114  0667  0098               	movwf	24	;volatile
  5115                           
  5116                           ;code/pwm.c: 157:    PWM4DCL = pwm << 6;
  5117  0668  0870               	movf	set_pwm@pwm,w
  5118  0669  00F1               	movwf	??_set_pwm
  5119  066A  3005               	movlw	5
  5120  066B                     u555:	
  5121  066B  35F1               	lslf	??_set_pwm,f
  5122  066C  3EFF               	addlw	-1
  5123  066D  1D03               	skipz
  5124  066E  2E6B               	goto	u555
  5125  066F  3571               	lslf	??_set_pwm,w
  5126  0670  0097               	movwf	23	;volatile
  5127                           
  5128                           ;code/pwm.c: 158:    break;
  5129  0671  2EA1               	goto	l283
  5130  0672                     l1420:	
  5131                           
  5132                           ;code/pwm.c: 160:    PWM9DCH = pwm >> 2;
  5133  0672  0870               	movf	set_pwm@pwm,w
  5134  0673  00F1               	movwf	??_set_pwm
  5135  0674  3002               	movlw	2
  5136  0675                     u565:	
  5137  0675  36F1               	lsrf	??_set_pwm,f
  5138  0676  0B89               	decfsz	9,f
  5139  0677  2E75               	goto	u565
  5140  0678  0871               	movf	??_set_pwm,w
  5141  0679  002C               	movlb	12	; select bank12
  5142  067A  009B               	movwf	27	;volatile
  5143                           
  5144                           ;code/pwm.c: 161:    PWM9DCL = pwm << 6;
  5145  067B  0870               	movf	set_pwm@pwm,w
  5146  067C  00F1               	movwf	??_set_pwm
  5147  067D  3005               	movlw	5
  5148  067E                     u575:	
  5149  067E  35F1               	lslf	??_set_pwm,f
  5150  067F  3EFF               	addlw	-1
  5151  0680  1D03               	skipz
  5152  0681  2E7E               	goto	u575
  5153  0682  3571               	lslf	??_set_pwm,w
  5154  0683  009A               	movwf	26	;volatile
  5155                           
  5156                           ;code/pwm.c: 162:    break;
  5157  0684  2EA1               	goto	l283
  5158  0685                     l1422:	
  5159                           
  5160                           ;code/pwm.c: 164:    PWM5DCL = pwm;
  5161  0685  0870               	movf	set_pwm@pwm,w
  5162  0686  003B               	movlb	27	; select bank27
  5163  0687  0093               	movwf	19	;volatile
  5164  0688                     l1424:	
  5165                           
  5166                           ;code/pwm.c: 165:    PWM5DCH = 0;
  5167  0688  0194               	clrf	20	;volatile
  5168  0689                     l1426:	
  5169                           
  5170                           ;code/pwm.c: 166:        PWM5LDCONbits.LDA = 1;
  5171  0689  179F               	bsf	31,7	;volatile
  5172                           
  5173                           ;code/pwm.c: 167:    break;
  5174  068A  2EA1               	goto	l283
  5175  068B                     l1430:	
  5176  068B  0873               	movf	set_pwm@motor,w
  5177  068C  00F1               	movwf	??_set_pwm
  5178  068D  01F2               	clrf	??_set_pwm+1
  5179                           
  5180                           ; Switch on 2 bytes has been partitioned into a top level switch of size 1, and 1 sub-sw
      +                          itches
  5181                           ; Switch size 1, requested type "simple"
  5182                           ; Number of cases is 1, Range of values is 0 to 0
  5183                           ; switch strategies available:
  5184                           ; Name         Instructions Cycles
  5185                           ; simple_byte            4     3 (average)
  5186                           ; direct_byte            8     6 (fixed)
  5187                           ; jumptable            260     6 (fixed)
  5188                           ;	Chosen strategy is simple_byte
  5189  068E  0872               	movf	??_set_pwm+1,w
  5190  068F  3A00               	xorlw	0	; case 0
  5191  0690  1903               	skipnz
  5192  0691  2E93               	goto	l1734
  5193  0692  2EA1               	goto	l283
  5194  0693                     l1734:	
  5195                           
  5196                           ; Switch size 1, requested type "simple"
  5197                           ; Number of cases is 4, Range of values is 1 to 4
  5198                           ; switch strategies available:
  5199                           ; Name         Instructions Cycles
  5200                           ; simple_byte           13     7 (average)
  5201                           ; direct_byte           17     9 (fixed)
  5202                           ; jumptable            263     9 (fixed)
  5203                           ;	Chosen strategy is simple_byte
  5204  0693  0871               	movf	??_set_pwm,w
  5205  0694  3A01               	xorlw	1	; case 1
  5206  0695  1903               	skipnz
  5207  0696  2E4C               	goto	l1416
  5208  0697  3A03               	xorlw	3	; case 2
  5209  0698  1903               	skipnz
  5210  0699  2E5F               	goto	l1418
  5211  069A  3A01               	xorlw	1	; case 3
  5212  069B  1903               	skipnz
  5213  069C  2E72               	goto	l1420
  5214  069D  3A07               	xorlw	7	; case 4
  5215  069E  1903               	skipnz
  5216  069F  2E85               	goto	l1422
  5217  06A0  2EA1               	goto	l283
  5218  06A1                     l283:	
  5219  06A1  0008               	return
  5220  06A2                     __end_of_set_pwm:	
  5221                           
  5222                           	psect	text13
  5223  0432                     __ptext13:	
  5224 ;; *************** function _i2c_isr *****************
  5225 ;; Defined at:
  5226 ;;		line 68 in file "code/i2c.c"
  5227 ;; Parameters:    Size  Location     Type
  5228 ;;		None
  5229 ;; Auto vars:     Size  Location     Type
  5230 ;;		None
  5231 ;; Return value:  Size  Location     Type
  5232 ;;                  1    wreg      void 
  5233 ;; Registers used:
  5234 ;;		wreg, fsr1l, fsr1h, status,2, status,0, pclath, cstack
  5235 ;; Tracked objects:
  5236 ;;		On entry : 0/0
  5237 ;;		On exit  : 0/0
  5238 ;;		Unchanged: 0/0
  5239 ;; Data sizes:     COMMON   BANK0   BANK1   BANK2   BANK3   BANK4   BANK5   BANK6
  5240 ;;      Params:         0       0       0       0       0       0       0       0
  5241 ;;      Locals:         0       0       0       0       0       0       0       0
  5242 ;;      Temps:          0       0       0       0       0       0       0       0
  5243 ;;      Totals:         0       0       0       0       0       0       0       0
  5244 ;;Total ram usage:        0 bytes
  5245 ;; Hardware stack levels used:    1
  5246 ;; Hardware stack levels required when called:    2
  5247 ;; This function calls:
  5248 ;;		_handle_read
  5249 ;;		_handle_write
  5250 ;; This function is called by:
  5251 ;;		_main
  5252 ;; This function uses a non-reentrant model
  5253 ;;
  5254                           
  5255                           
  5256                           ;psect for function _i2c_isr
  5257  0432                     _i2c_isr:	
  5258  0432                     l1542:	
  5259                           ;incstack = 0
  5260                           ; Regs used in _i2c_isr: [wreg+fsr1l+fsr1h+status,2+status,0+pclath+cstack]
  5261                           
  5262                           
  5263                           ;code/i2c.c: 70:      PIR1bits.SSP1IF = 0;
  5264  0432  0020               	movlb	0	; select bank0
  5265  0433  1191               	bcf	17,3	;volatile
  5266                           
  5267                           ;code/i2c.c: 71:      if(SSP1STATbits.R_nW) handle_read();
  5268  0434  0024               	movlb	4	; select bank4
  5269  0435  1D14               	btfss	20,2	;volatile
  5270  0436  2C38               	goto	u721
  5271  0437  2C39               	goto	u720
  5272  0438                     u721:	
  5273  0438  2C3D               	goto	l1546
  5274  0439                     u720:	
  5275  0439                     l1544:	
  5276  0439  3183  23F7  3184   	fcall	_handle_read
  5277  043C  2C40               	goto	l1548
  5278  043D                     l1546:	
  5279  043D  3185  2527  3184   	fcall	_handle_write
  5280  0440                     l1548:	
  5281                           
  5282                           ;code/i2c.c: 73:      SSP1CONbits.CKP = 1;
  5283  0440  0024               	movlb	4	; select bank4
  5284  0441  1615               	bsf	21,4	;volatile
  5285  0442                     l60:	
  5286  0442  0008               	return
  5287  0443                     __end_of_i2c_isr:	
  5288                           
  5289                           	psect	text14
  5290  0527                     __ptext14:	
  5291 ;; *************** function _handle_write *****************
  5292 ;; Defined at:
  5293 ;;		line 84 in file "code/i2c.c"
  5294 ;; Parameters:    Size  Location     Type
  5295 ;;		None
  5296 ;; Auto vars:     Size  Location     Type
  5297 ;;  buf             1    5[COMMON] unsigned char 
  5298 ;; Return value:  Size  Location     Type
  5299 ;;                  1    wreg      void 
  5300 ;; Registers used:
  5301 ;;		wreg, fsr1l, fsr1h, status,2, status,0, pclath, cstack
  5302 ;; Tracked objects:
  5303 ;;		On entry : 0/0
  5304 ;;		On exit  : 0/0
  5305 ;;		Unchanged: 0/0
  5306 ;; Data sizes:     COMMON   BANK0   BANK1   BANK2   BANK3   BANK4   BANK5   BANK6
  5307 ;;      Params:         0       0       0       0       0       0       0       0
  5308 ;;      Locals:         1       0       0       0       0       0       0       0
  5309 ;;      Temps:          1       0       0       0       0       0       0       0
  5310 ;;      Totals:         2       0       0       0       0       0       0       0
  5311 ;;Total ram usage:        2 bytes
  5312 ;; Hardware stack levels used:    1
  5313 ;; Hardware stack levels required when called:    1
  5314 ;; This function calls:
  5315 ;;		_write_register
  5316 ;; This function is called by:
  5317 ;;		_i2c_isr
  5318 ;; This function uses a non-reentrant model
  5319 ;;
  5320                           
  5321                           
  5322                           ;psect for function _handle_write
  5323  0527                     _handle_write:	
  5324  0527                     l1490:	
  5325                           ;incstack = 0
  5326                           ; Regs used in _handle_write: [wreg+fsr1l+fsr1h+status,2+status,0+pclath+cstack]
  5327                           
  5328                           
  5329                           ;code/i2c.c: 86:      u8 buf = SSP1BUF;
  5330  0527  0024               	movlb	4	; select bank4
  5331  0528  0811               	movf	17,w	;volatile
  5332  0529  00F4               	movwf	??_handle_write
  5333  052A  0874               	movf	??_handle_write,w
  5334  052B  00F5               	movwf	handle_write@buf
  5335  052C                     l1492:	
  5336                           
  5337                           ;code/i2c.c: 88:      if(!SSP1STATbits.D_nA){
  5338  052C  1A94               	btfsc	20,5	;volatile
  5339  052D  2D2F               	goto	u601
  5340  052E  2D30               	goto	u600
  5341  052F                     u601:	
  5342  052F  2D34               	goto	l1496
  5343  0530                     u600:	
  5344  0530                     l1494:	
  5345                           
  5346                           ;code/i2c.c: 89:    first_write = 1;
  5347  0530  0020               	movlb	0	; select bank0
  5348  0531  01C9               	clrf	_first_write
  5349  0532  0AC9               	incf	_first_write,f
  5350                           
  5351                           ;code/i2c.c: 90:    return;
  5352  0533  2D4D               	goto	l67
  5353  0534                     l1496:	
  5354                           
  5355                           ;code/i2c.c: 92:      if(first_write){
  5356  0534  0020               	movlb	0	; select bank0
  5357  0535  0849               	movf	_first_write,w
  5358  0536  1903               	btfsc	3,2
  5359  0537  2D39               	goto	u611
  5360  0538  2D3A               	goto	u610
  5361  0539                     u611:	
  5362  0539  2D40               	goto	l1502
  5363  053A                     u610:	
  5364  053A                     l1498:	
  5365                           
  5366                           ;code/i2c.c: 93:    current_reg = buf;
  5367  053A  0875               	movf	handle_write@buf,w
  5368  053B  00F4               	movwf	??_handle_write
  5369  053C  0874               	movf	??_handle_write,w
  5370  053D  00CA               	movwf	_current_reg
  5371  053E                     l1500:	
  5372                           
  5373                           ;code/i2c.c: 94:    first_write = 0;
  5374  053E  01C9               	clrf	_first_write
  5375                           
  5376                           ;code/i2c.c: 95:      }else{
  5377  053F  2D4D               	goto	l67
  5378  0540                     l1502:	
  5379                           
  5380                           ;code/i2c.c: 96:    write_register(current_reg++,buf);
  5381  0540  0875               	movf	handle_write@buf,w
  5382  0541  00F4               	movwf	??_handle_write
  5383  0542  0874               	movf	??_handle_write,w
  5384  0543  00F0               	movwf	write_register@val
  5385  0544  084A               	movf	_current_reg,w
  5386  0545  3185  2501  3185   	fcall	_write_register
  5387  0548                     l1504:	
  5388  0548  3001               	movlw	1
  5389  0549  00F4               	movwf	??_handle_write
  5390  054A  0874               	movf	??_handle_write,w
  5391  054B  0020               	movlb	0	; select bank0
  5392  054C  07CA               	addwf	_current_reg,f
  5393  054D                     l67:	
  5394  054D  0008               	return
  5395  054E                     __end_of_handle_write:	
  5396                           
  5397                           	psect	text15
  5398  0501                     __ptext15:	
  5399 ;; *************** function _write_register *****************
  5400 ;; Defined at:
  5401 ;;		line 100 in file "code/i2c.c"
  5402 ;; Parameters:    Size  Location     Type
  5403 ;;  reg             1    wreg     unsigned char 
  5404 ;;  val             1    0[COMMON] unsigned char 
  5405 ;; Auto vars:     Size  Location     Type
  5406 ;;  reg             1    3[COMMON] unsigned char 
  5407 ;;  msk             1    2[COMMON] unsigned char 
  5408 ;; Return value:  Size  Location     Type
  5409 ;;                  1    wreg      void 
  5410 ;; Registers used:
  5411 ;;		wreg, fsr1l, fsr1h, status,2, status,0
  5412 ;; Tracked objects:
  5413 ;;		On entry : 0/0
  5414 ;;		On exit  : 0/0
  5415 ;;		Unchanged: 0/0
  5416 ;; Data sizes:     COMMON   BANK0   BANK1   BANK2   BANK3   BANK4   BANK5   BANK6
  5417 ;;      Params:         1       0       0       0       0       0       0       0
  5418 ;;      Locals:         2       0       0       0       0       0       0       0
  5419 ;;      Temps:          1       0       0       0       0       0       0       0
  5420 ;;      Totals:         4       0       0       0       0       0       0       0
  5421 ;;Total ram usage:        4 bytes
  5422 ;; Hardware stack levels used:    1
  5423 ;; This function calls:
  5424 ;;		Nothing
  5425 ;; This function is called by:
  5426 ;;		_handle_write
  5427 ;; This function uses a non-reentrant model
  5428 ;;
  5429                           
  5430                           
  5431                           ;psect for function _write_register
  5432  0501                     _write_register:	
  5433                           
  5434                           ;incstack = 0
  5435                           ; Regs used in _write_register: [wreg+fsr1l+fsr1h+status,2+status,0]
  5436                           ;write_register@reg stored from wreg
  5437  0501  00F3               	movwf	write_register@reg
  5438  0502                     l1446:	
  5439                           
  5440                           ;code/i2c.c: 100: static void write_register(u8 reg,u8 val);code/i2c.c: 101: {;code/i2c.
      +                          c: 102:      if(reg >= 10) return;
  5441  0502  300A               	movlw	10
  5442  0503  0273               	subwf	write_register@reg,w
  5443  0504  1C03               	skipc
  5444  0505  2D07               	goto	u591
  5445  0506  2D08               	goto	u590
  5446  0507                     u591:	
  5447  0507  2D09               	goto	l1450
  5448  0508                     u590:	
  5449  0508  2D26               	goto	l73
  5450  0509                     l1450:	
  5451                           
  5452                           ;code/i2c.c: 103:      u8 msk = writeable_reg[reg];
  5453  0509  0873               	movf	write_register@reg,w
  5454  050A  3E30               	addlw	(low (_writeable_reg| 0))& (0+255)
  5455  050B  0086               	movwf	6
  5456  050C  0187               	clrf	7
  5457  050D  0801               	movf	1,w
  5458  050E  00F1               	movwf	??_write_register
  5459  050F  0871               	movf	??_write_register,w
  5460  0510  00F2               	movwf	write_register@msk
  5461  0511                     l1452:	
  5462                           
  5463                           ;code/i2c.c: 106:      val &= msk;
  5464  0511  0872               	movf	write_register@msk,w
  5465  0512  00F1               	movwf	??_write_register
  5466  0513  0871               	movf	??_write_register,w
  5467  0514  05F0               	andwf	write_register@val,f
  5468  0515                     l1454:	
  5469                           
  5470                           ;code/i2c.c: 107:      val |= (i2c_registers[reg] & ~msk);
  5471  0515  0873               	movf	write_register@reg,w
  5472  0516  3E3E               	addlw	(low (_i2c_registers| 0))& (0+255)
  5473  0517  0086               	movwf	6
  5474  0518  0187               	clrf	7
  5475  0519  0972               	comf	write_register@msk,w
  5476  051A  0501               	andwf	1,w
  5477  051B  00F1               	movwf	??_write_register
  5478  051C  0871               	movf	??_write_register,w
  5479  051D  04F0               	iorwf	write_register@val,f
  5480  051E                     l1456:	
  5481                           
  5482                           ;code/i2c.c: 108:  i2c_registers[reg] = val;
  5483  051E  0870               	movf	write_register@val,w
  5484  051F  00F1               	movwf	??_write_register
  5485  0520  0873               	movf	write_register@reg,w
  5486  0521  3E3E               	addlw	(low (_i2c_registers| 0))& (0+255)
  5487  0522  0086               	movwf	6
  5488  0523  0187               	clrf	7
  5489  0524  0871               	movf	??_write_register,w
  5490  0525  0081               	movwf	1
  5491  0526                     l73:	
  5492  0526  0008               	return
  5493  0527                     __end_of_write_register:	
  5494                           
  5495                           	psect	text16
  5496  03F7                     __ptext16:	
  5497 ;; *************** function _handle_read *****************
  5498 ;; Defined at:
  5499 ;;		line 76 in file "code/i2c.c"
  5500 ;; Parameters:    Size  Location     Type
  5501 ;;		None
  5502 ;; Auto vars:     Size  Location     Type
  5503 ;;  buf             1    3[COMMON] unsigned char 
  5504 ;;  x               1    0        unsigned char 
  5505 ;; Return value:  Size  Location     Type
  5506 ;;                  1    wreg      void 
  5507 ;; Registers used:
  5508 ;;		wreg, fsr1l, fsr1h, status,2, status,0, pclath, cstack
  5509 ;; Tracked objects:
  5510 ;;		On entry : 0/0
  5511 ;;		On exit  : 0/0
  5512 ;;		Unchanged: 0/0
  5513 ;; Data sizes:     COMMON   BANK0   BANK1   BANK2   BANK3   BANK4   BANK5   BANK6
  5514 ;;      Params:         0       0       0       0       0       0       0       0
  5515 ;;      Locals:         2       0       0       0       0       0       0       0
  5516 ;;      Temps:          1       0       0       0       0       0       0       0
  5517 ;;      Totals:         3       0       0       0       0       0       0       0
  5518 ;;Total ram usage:        3 bytes
  5519 ;; Hardware stack levels used:    1
  5520 ;; Hardware stack levels required when called:    1
  5521 ;; This function calls:
  5522 ;;		_read_register
  5523 ;; This function is called by:
  5524 ;;		_i2c_isr
  5525 ;; This function uses a non-reentrant model
  5526 ;;
  5527                           
  5528                           
  5529                           ;psect for function _handle_read
  5530  03F7                     _handle_read:	
  5531  03F7                     l1484:	
  5532                           ;incstack = 0
  5533                           ; Regs used in _handle_read: [wreg+fsr1l+fsr1h+status,2+status,0+pclath+cstack]
  5534                           
  5535  03F7  0024               	movlb	4	; select bank4
  5536  03F8  0811               	movf	17,w	;volatile
  5537  03F9                     l1486:	
  5538                           
  5539                           ;code/i2c.c: 79:      u8 buf = read_register(current_reg);
  5540  03F9  0020               	movlb	0	; select bank0
  5541  03FA  084A               	movf	_current_reg,w
  5542  03FB  3184  2413  3183   	fcall	_read_register
  5543  03FE  00F1               	movwf	??_handle_read
  5544  03FF  0871               	movf	??_handle_read,w
  5545  0400  00F3               	movwf	handle_read@buf
  5546  0401                     l1488:	
  5547                           
  5548                           ;code/i2c.c: 80:      SSP1BUF = buf;
  5549  0401  0873               	movf	handle_read@buf,w
  5550  0402  0024               	movlb	4	; select bank4
  5551  0403  0091               	movwf	17	;volatile
  5552  0404                     l63:	
  5553  0404  0008               	return
  5554  0405                     __end_of_handle_read:	
  5555                           
  5556                           	psect	text17
  5557  0413                     __ptext17:	
  5558 ;; *************** function _read_register *****************
  5559 ;; Defined at:
  5560 ;;		line 111 in file "code/i2c.c"
  5561 ;; Parameters:    Size  Location     Type
  5562 ;;  reg             1    wreg     unsigned char 
  5563 ;; Auto vars:     Size  Location     Type
  5564 ;;  reg             1    0[COMMON] unsigned char 
  5565 ;; Return value:  Size  Location     Type
  5566 ;;                  1    wreg      unsigned char 
  5567 ;; Registers used:
  5568 ;;		wreg, fsr1l, fsr1h, status,2, status,0
  5569 ;; Tracked objects:
  5570 ;;		On entry : 0/0
  5571 ;;		On exit  : 0/0
  5572 ;;		Unchanged: 0/0
  5573 ;; Data sizes:     COMMON   BANK0   BANK1   BANK2   BANK3   BANK4   BANK5   BANK6
  5574 ;;      Params:         0       0       0       0       0       0       0       0
  5575 ;;      Locals:         1       0       0       0       0       0       0       0
  5576 ;;      Temps:          0       0       0       0       0       0       0       0
  5577 ;;      Totals:         1       0       0       0       0       0       0       0
  5578 ;;Total ram usage:        1 bytes
  5579 ;; Hardware stack levels used:    1
  5580 ;; This function calls:
  5581 ;;		Nothing
  5582 ;; This function is called by:
  5583 ;;		_handle_read
  5584 ;; This function uses a non-reentrant model
  5585 ;;
  5586                           
  5587                           
  5588                           ;psect for function _read_register
  5589  0413                     _read_register:	
  5590                           
  5591                           ;incstack = 0
  5592                           ; Regs used in _read_register: [wreg+fsr1l+fsr1h+status,2+status,0]
  5593                           ;read_register@reg stored from wreg
  5594  0413  00F0               	movwf	read_register@reg
  5595  0414                     l1436:	
  5596                           
  5597                           ;code/i2c.c: 111: static u8 read_register(u8 reg);code/i2c.c: 112: {;code/i2c.c: 113:   
      +                             if(reg >= 10) return 0;
  5598  0414  300A               	movlw	10
  5599  0415  0270               	subwf	read_register@reg,w
  5600  0416  1C03               	skipc
  5601  0417  2C19               	goto	u581
  5602  0418  2C1A               	goto	u580
  5603  0419                     u581:	
  5604  0419  2C1C               	goto	l1442
  5605  041A                     u580:	
  5606  041A                     l1438:	
  5607  041A  3000               	movlw	0
  5608  041B  2C21               	goto	l77
  5609  041C                     l1442:	
  5610                           
  5611                           ;code/i2c.c: 114:      return i2c_registers[reg];
  5612  041C  0870               	movf	read_register@reg,w
  5613  041D  3E3E               	addlw	(low (_i2c_registers| 0))& (0+255)
  5614  041E  0086               	movwf	6
  5615  041F  0187               	clrf	7
  5616  0420  0801               	movf	1,w
  5617  0421                     l77:	
  5618  0421  0008               	return
  5619  0422                     __end_of_read_register:	
  5620                           
  5621                           	psect	text18
  5622  03ED                     __ptext18:	
  5623 ;; *************** function _config_rev *****************
  5624 ;; Defined at:
  5625 ;;		line 6 in file "code/rev.c"
  5626 ;; Parameters:    Size  Location     Type
  5627 ;;		None
  5628 ;; Auto vars:     Size  Location     Type
  5629 ;;		None
  5630 ;; Return value:  Size  Location     Type
  5631 ;;                  1    wreg      void 
  5632 ;; Registers used:
  5633 ;;		wreg
  5634 ;; Tracked objects:
  5635 ;;		On entry : 0/0
  5636 ;;		On exit  : 0/0
  5637 ;;		Unchanged: 0/0
  5638 ;; Data sizes:     COMMON   BANK0   BANK1   BANK2   BANK3   BANK4   BANK5   BANK6
  5639 ;;      Params:         0       0       0       0       0       0       0       0
  5640 ;;      Locals:         0       0       0       0       0       0       0       0
  5641 ;;      Temps:          0       0       0       0       0       0       0       0
  5642 ;;      Totals:         0       0       0       0       0       0       0       0
  5643 ;;Total ram usage:        0 bytes
  5644 ;; Hardware stack levels used:    1
  5645 ;; This function calls:
  5646 ;;		Nothing
  5647 ;; This function is called by:
  5648 ;;		_main
  5649 ;; This function uses a non-reentrant model
  5650 ;;
  5651                           
  5652                           
  5653                           ;psect for function _config_rev
  5654  03ED                     _config_rev:	
  5655  03ED                     l1156:	
  5656                           ;incstack = 0
  5657                           ; Regs used in _config_rev: [wreg]
  5658                           
  5659                           
  5660                           ;code/rev.c: 8:      LATB = 0b000100;
  5661  03ED  3004               	movlw	4
  5662  03EE  0022               	movlb	2	; select bank2
  5663  03EF  008D               	movwf	13	;volatile
  5664                           
  5665                           ;code/rev.c: 9:      TRISB = 0b000010;
  5666  03F0  3002               	movlw	2
  5667  03F1  0021               	movlb	1	; select bank1
  5668  03F2  008D               	movwf	13	;volatile
  5669                           
  5670                           ;code/rev.c: 11:      T3CON = 0b11110000;
  5671  03F3  30F0               	movlw	240
  5672  03F4  0020               	movlb	0	; select bank0
  5673  03F5  009E               	movwf	30	;volatile
  5674  03F6                     l304:	
  5675  03F6  0008               	return
  5676  03F7                     __end_of_config_rev:	
  5677                           
  5678                           	psect	text19
  5679  05C6                     __ptext19:	
  5680 ;; *************** function _config_pwm *****************
  5681 ;; Defined at:
  5682 ;;		line 28 in file "code/pwm.c"
  5683 ;; Parameters:    Size  Location     Type
  5684 ;;		None
  5685 ;; Auto vars:     Size  Location     Type
  5686 ;;		None
  5687 ;; Return value:  Size  Location     Type
  5688 ;;                  1    wreg      void 
  5689 ;; Registers used:
  5690 ;;		wreg, fsr0l, fsr0h, fsr1l, fsr1h, status,2, status,0, pclath, cstack
  5691 ;; Tracked objects:
  5692 ;;		On entry : 0/0
  5693 ;;		On exit  : 0/0
  5694 ;;		Unchanged: 0/0
  5695 ;; Data sizes:     COMMON   BANK0   BANK1   BANK2   BANK3   BANK4   BANK5   BANK6
  5696 ;;      Params:         0       0       0       0       0       0       0       0
  5697 ;;      Locals:         0       0       0       0       0       0       0       0
  5698 ;;      Temps:          1       0       0       0       0       0       0       0
  5699 ;;      Totals:         1       0       0       0       0       0       0       0
  5700 ;;Total ram usage:        1 bytes
  5701 ;; Hardware stack levels used:    1
  5702 ;; Hardware stack levels required when called:    1
  5703 ;; This function calls:
  5704 ;;		_set_motor_pps
  5705 ;;		_set_pwms_dc
  5706 ;; This function is called by:
  5707 ;;		_main
  5708 ;; This function uses a non-reentrant model
  5709 ;;
  5710                           
  5711                           
  5712                           ;psect for function _config_pwm
  5713  05C6                     _config_pwm:	
  5714  05C6                     l1550:	
  5715                           ;incstack = 0
  5716                           ; Regs used in _config_pwm: [wreg-fsr1h+status,2+status,0+pclath+cstack]
  5717                           
  5718                           
  5719                           ;code/pwm.c: 31:      T2CLKCON = 0b0001;
  5720  05C6  3001               	movlw	1
  5721  05C7  0029               	movlb	9	; select bank9
  5722  05C8  0097               	movwf	23	;volatile
  5723                           
  5724                           ;code/pwm.c: 32:      T2PR = 0x3F;
  5725  05C9  303F               	movlw	63
  5726  05CA  0094               	movwf	20	;volatile
  5727                           
  5728                           ;code/pwm.c: 33:      T2CON = 0b10100000;
  5729  05CB  30A0               	movlw	160
  5730  05CC  0095               	movwf	21	;volatile
  5731                           
  5732                           ;code/pwm.c: 35:      PWM3CON = 0x90;
  5733  05CD  3090               	movlw	144
  5734  05CE  002C               	movlb	12	; select bank12
  5735  05CF  0096               	movwf	22	;volatile
  5736                           
  5737                           ;code/pwm.c: 36:      PWM4CON = 0x90;
  5738  05D0  3090               	movlw	144
  5739  05D1  0099               	movwf	25	;volatile
  5740                           
  5741                           ;code/pwm.c: 37:      PWM9CON = 0x90;
  5742  05D2  3090               	movlw	144
  5743  05D3  009C               	movwf	28	;volatile
  5744                           
  5745                           ;code/pwm.c: 39:      PWM5CLKCON = 0b00100000;
  5746  05D4  3020               	movlw	32
  5747  05D5  003B               	movlb	27	; select bank27
  5748  05D6  009E               	movwf	30	;volatile
  5749  05D7                     l1552:	
  5750                           
  5751                           ;code/pwm.c: 40:      PWM5LDCON = 0b00000000;
  5752  05D7  019F               	clrf	31	;volatile
  5753  05D8                     l1554:	
  5754                           
  5755                           ;code/pwm.c: 41:      PWM5PRH = 0;
  5756  05D8  0196               	clrf	22	;volatile
  5757                           
  5758                           ;code/pwm.c: 42:      PWM5PRL = 0xFF;
  5759  05D9  30FF               	movlw	255
  5760  05DA  0095               	movwf	21	;volatile
  5761  05DB                     l1556:	
  5762                           
  5763                           ;code/pwm.c: 43:      PWM5PHH = 0;
  5764  05DB  0192               	clrf	18	;volatile
  5765  05DC                     l1558:	
  5766                           
  5767                           ;code/pwm.c: 44:      PWM5PHL = 0;
  5768  05DC  0191               	clrf	17	;volatile
  5769                           
  5770                           ;code/pwm.c: 45:      PWM5CON = 0x90;
  5771  05DD  3090               	movlw	144
  5772  05DE  009B               	movwf	27	;volatile
  5773  05DF                     l1560:	
  5774                           
  5775                           ;code/pwm.c: 47:      set_pwms_dc(0,0,0,0);
  5776  05DF  01F0               	clrf	set_pwms_dc@m4
  5777  05E0  01F1               	clrf	set_pwms_dc@m9
  5778  05E1  01F2               	clrf	set_pwms_dc@m5
  5779  05E2  3000               	movlw	0
  5780  05E3  3185  254E  3185   	fcall	_set_pwms_dc
  5781  05E6                     l1562:	
  5782                           
  5783                           ;code/pwm.c: 49:      LATC &= 0x0F;
  5784  05E6  300F               	movlw	15
  5785  05E7  00F5               	movwf	??_config_pwm
  5786  05E8  0875               	movf	??_config_pwm,w
  5787  05E9  0022               	movlb	2	; select bank2
  5788  05EA  058E               	andwf	14,f	;volatile
  5789  05EB                     l1564:	
  5790                           
  5791                           ;code/pwm.c: 51:      set_motor_pps(1,0,0);
  5792  05EB  01F0               	clrf	set_motor_pps@a_mode
  5793  05EC  01F1               	clrf	set_motor_pps@b_mode
  5794  05ED  3001               	movlw	1
  5795  05EE  3186  26FC  3185   	fcall	_set_motor_pps
  5796  05F1                     l1566:	
  5797                           
  5798                           ;code/pwm.c: 52:      set_motor_pps(2,0,0);
  5799  05F1  01F0               	clrf	set_motor_pps@a_mode
  5800  05F2  01F1               	clrf	set_motor_pps@b_mode
  5801  05F3  3002               	movlw	2
  5802  05F4  3186  26FC  3185   	fcall	_set_motor_pps
  5803  05F7                     l1568:	
  5804                           
  5805                           ;code/pwm.c: 53:      set_motor_pps(3,0,0);
  5806  05F7  01F0               	clrf	set_motor_pps@a_mode
  5807  05F8  01F1               	clrf	set_motor_pps@b_mode
  5808  05F9  3003               	movlw	3
  5809  05FA  3186  26FC  3185   	fcall	_set_motor_pps
  5810  05FD                     l1570:	
  5811                           
  5812                           ;code/pwm.c: 54:      set_motor_pps(4,0,0);
  5813  05FD  01F0               	clrf	set_motor_pps@a_mode
  5814  05FE  01F1               	clrf	set_motor_pps@b_mode
  5815  05FF  3004               	movlw	4
  5816  0600  3186  26FC  3185   	fcall	_set_motor_pps
  5817  0603                     l232:	
  5818  0603  0008               	return
  5819  0604                     __end_of_config_pwm:	
  5820                           
  5821                           	psect	text20
  5822  054E                     __ptext20:	
  5823 ;; *************** function _set_pwms_dc *****************
  5824 ;; Defined at:
  5825 ;;		line 12 in file "code/pwm.c"
  5826 ;; Parameters:    Size  Location     Type
  5827 ;;  m3              1    wreg     unsigned char 
  5828 ;;  m4              1    0[COMMON] unsigned char 
  5829 ;;  m9              1    1[COMMON] unsigned char 
  5830 ;;  m5              1    2[COMMON] unsigned char 
  5831 ;; Auto vars:     Size  Location     Type
  5832 ;;  m3              1    4[COMMON] unsigned char 
  5833 ;; Return value:  Size  Location     Type
  5834 ;;                  1    wreg      void 
  5835 ;; Registers used:
  5836 ;;		wreg, status,2, status,0
  5837 ;; Tracked objects:
  5838 ;;		On entry : 0/0
  5839 ;;		On exit  : 0/0
  5840 ;;		Unchanged: 0/0
  5841 ;; Data sizes:     COMMON   BANK0   BANK1   BANK2   BANK3   BANK4   BANK5   BANK6
  5842 ;;      Params:         3       0       0       0       0       0       0       0
  5843 ;;      Locals:         1       0       0       0       0       0       0       0
  5844 ;;      Temps:          1       0       0       0       0       0       0       0
  5845 ;;      Totals:         5       0       0       0       0       0       0       0
  5846 ;;Total ram usage:        5 bytes
  5847 ;; Hardware stack levels used:    1
  5848 ;; This function calls:
  5849 ;;		Nothing
  5850 ;; This function is called by:
  5851 ;;		_config_pwm
  5852 ;; This function uses a non-reentrant model
  5853 ;;
  5854                           
  5855                           
  5856                           ;psect for function _set_pwms_dc
  5857  054E                     _set_pwms_dc:	
  5858                           
  5859                           ;incstack = 0
  5860                           ; Regs used in _set_pwms_dc: [wreg+status,2+status,0]
  5861                           ;set_pwms_dc@m3 stored from wreg
  5862  054E  00F4               	movwf	set_pwms_dc@m3
  5863  054F                     l1522:	
  5864                           
  5865                           ;code/pwm.c: 12: static void set_pwms_dc(u8 m3,u8 m4,u8 m9,u8 m5);code/pwm.c: 13: {;code
      +                          /pwm.c: 14:      PWM3DCH = m3 >> 2;
  5866  054F  0874               	movf	set_pwms_dc@m3,w
  5867  0550  00F3               	movwf	??_set_pwms_dc
  5868  0551  3002               	movlw	2
  5869  0552                     u655:	
  5870  0552  36F3               	lsrf	??_set_pwms_dc,f
  5871  0553  0B89               	decfsz	9,f
  5872  0554  2D52               	goto	u655
  5873  0555  0873               	movf	??_set_pwms_dc,w
  5874  0556  002C               	movlb	12	; select bank12
  5875  0557  0095               	movwf	21	;volatile
  5876                           
  5877                           ;code/pwm.c: 15:      PWM3DCL = m3 << 6;
  5878  0558  0874               	movf	set_pwms_dc@m3,w
  5879  0559  00F3               	movwf	??_set_pwms_dc
  5880  055A  3005               	movlw	5
  5881  055B                     u665:	
  5882  055B  35F3               	lslf	??_set_pwms_dc,f
  5883  055C  3EFF               	addlw	-1
  5884  055D  1D03               	skipz
  5885  055E  2D5B               	goto	u665
  5886  055F  3573               	lslf	??_set_pwms_dc,w
  5887  0560  0094               	movwf	20	;volatile
  5888                           
  5889                           ;code/pwm.c: 17:      PWM4DCH = m4 >> 2;
  5890  0561  0870               	movf	set_pwms_dc@m4,w
  5891  0562  00F3               	movwf	??_set_pwms_dc
  5892  0563  3002               	movlw	2
  5893  0564                     u675:	
  5894  0564  36F3               	lsrf	??_set_pwms_dc,f
  5895  0565  0B89               	decfsz	9,f
  5896  0566  2D64               	goto	u675
  5897  0567  0873               	movf	??_set_pwms_dc,w
  5898  0568  0098               	movwf	24	;volatile
  5899                           
  5900                           ;code/pwm.c: 18:      PWM4DCL = m4 << 6;
  5901  0569  0870               	movf	set_pwms_dc@m4,w
  5902  056A  00F3               	movwf	??_set_pwms_dc
  5903  056B  3005               	movlw	5
  5904  056C                     u685:	
  5905  056C  35F3               	lslf	??_set_pwms_dc,f
  5906  056D  3EFF               	addlw	-1
  5907  056E  1D03               	skipz
  5908  056F  2D6C               	goto	u685
  5909  0570  3573               	lslf	??_set_pwms_dc,w
  5910  0571  0097               	movwf	23	;volatile
  5911                           
  5912                           ;code/pwm.c: 20:      PWM9DCH = m9 >> 2;
  5913  0572  0871               	movf	set_pwms_dc@m9,w
  5914  0573  00F3               	movwf	??_set_pwms_dc
  5915  0574  3002               	movlw	2
  5916  0575                     u695:	
  5917  0575  36F3               	lsrf	??_set_pwms_dc,f
  5918  0576  0B89               	decfsz	9,f
  5919  0577  2D75               	goto	u695
  5920  0578  0873               	movf	??_set_pwms_dc,w
  5921  0579  009B               	movwf	27	;volatile
  5922                           
  5923                           ;code/pwm.c: 21:      PWM9DCL = m9 << 6;
  5924  057A  0871               	movf	set_pwms_dc@m9,w
  5925  057B  00F3               	movwf	??_set_pwms_dc
  5926  057C  3005               	movlw	5
  5927  057D                     u705:	
  5928  057D  35F3               	lslf	??_set_pwms_dc,f
  5929  057E  3EFF               	addlw	-1
  5930  057F  1D03               	skipz
  5931  0580  2D7D               	goto	u705
  5932  0581  3573               	lslf	??_set_pwms_dc,w
  5933  0582  009A               	movwf	26	;volatile
  5934  0583                     l1524:	
  5935                           
  5936                           ;code/pwm.c: 23:      PWM5DCH = 0;
  5937  0583  003B               	movlb	27	; select bank27
  5938  0584  0194               	clrf	20	;volatile
  5939  0585                     l1526:	
  5940                           
  5941                           ;code/pwm.c: 24:      PWM5DCL = m5;
  5942  0585  0872               	movf	set_pwms_dc@m5,w
  5943  0586  0093               	movwf	19	;volatile
  5944  0587                     l1528:	
  5945                           
  5946                           ;code/pwm.c: 25:      PWM5LDCONbits.LDA = 1;
  5947  0587  179F               	bsf	31,7	;volatile
  5948  0588                     l229:	
  5949  0588  0008               	return
  5950  0589                     __end_of_set_pwms_dc:	
  5951                           
  5952                           	psect	text21
  5953  06FC                     __ptext21:	
  5954 ;; *************** function _set_motor_pps *****************
  5955 ;; Defined at:
  5956 ;;		line 98 in file "code/pwm.c"
  5957 ;; Parameters:    Size  Location     Type
  5958 ;;  motor           1    wreg     unsigned char 
  5959 ;;  a_mode          1    0[COMMON] unsigned char 
  5960 ;;  b_mode          1    1[COMMON] unsigned char 
  5961 ;; Auto vars:     Size  Location     Type
  5962 ;;  motor           1    4[BANK0 ] unsigned char 
  5963 ;;  x               1    9[BANK0 ] unsigned char 
  5964 ;;  lat_b           1    8[BANK0 ] unsigned char 
  5965 ;;  lat_a           1    7[BANK0 ] unsigned char 
  5966 ;;  pps_b           1    6[BANK0 ] unsigned char 
  5967 ;;  pps_a           1    5[BANK0 ] unsigned char 
  5968 ;; Return value:  Size  Location     Type
  5969 ;;                  1    wreg      void 
  5970 ;; Registers used:
  5971 ;;		wreg, fsr0l, fsr0h, fsr1l, fsr1h, status,2, status,0
  5972 ;; Tracked objects:
  5973 ;;		On entry : 0/0
  5974 ;;		On exit  : 0/0
  5975 ;;		Unchanged: 0/0
  5976 ;; Data sizes:     COMMON   BANK0   BANK1   BANK2   BANK3   BANK4   BANK5   BANK6
  5977 ;;      Params:         2       0       0       0       0       0       0       0
  5978 ;;      Locals:         0      10       0       0       0       0       0       0
  5979 ;;      Temps:          3       0       0       0       0       0       0       0
  5980 ;;      Totals:         5      10       0       0       0       0       0       0
  5981 ;;Total ram usage:       15 bytes
  5982 ;; Hardware stack levels used:    1
  5983 ;; This function calls:
  5984 ;;		Nothing
  5985 ;; This function is called by:
  5986 ;;		_config_pwm
  5987 ;;		_set_pwm_mode
  5988 ;; This function uses a non-reentrant model
  5989 ;;
  5990                           
  5991                           
  5992                           ;psect for function _set_motor_pps
  5993  06FC                     _set_motor_pps:	
  5994                           
  5995                           ;incstack = 0
  5996                           ; Regs used in _set_motor_pps: [wreg-fsr1h+status,2+status,0]
  5997                           ;set_motor_pps@motor stored from wreg
  5998  06FC  0020               	movlb	0	; select bank0
  5999  06FD  00A4               	movwf	set_motor_pps@motor
  6000  06FE                     l1304:	
  6001                           
  6002                           ;code/pwm.c: 98: static void set_motor_pps(u8 motor,u8 a_mode,u8 b_mode);code/pwm.c: 99:
      +                           {;code/pwm.c: 100:      u8 pps_a = a_mode==2 ? pps_pwm_vals[motor-1] : 0;
  6003  06FE  3002               	movlw	2
  6004  06FF  0670               	xorwf	set_motor_pps@a_mode,w
  6005  0700  1903               	btfsc	3,2
  6006  0701  2F03               	goto	u401
  6007  0702  2F04               	goto	u400
  6008  0703                     u401:	
  6009  0703  2F07               	goto	l1308
  6010  0704                     u400:	
  6011  0704                     l1306:	
  6012  0704  01A0               	clrf	_set_motor_pps$383
  6013  0705  01A1               	clrf	_set_motor_pps$383+1
  6014  0706  2F12               	goto	l1310
  6015  0707                     l1308:	
  6016  0707  0824               	movf	set_motor_pps@motor,w
  6017  0708  3E39               	addlw	(low ((_pps_pwm_vals| 0+255)))& (0+255)
  6018  0709  0086               	movwf	6
  6019  070A  0187               	clrf	7
  6020  070B  0801               	movf	1,w
  6021  070C  00F2               	movwf	??_set_motor_pps
  6022  070D  01F3               	clrf	??_set_motor_pps+1
  6023  070E  0872               	movf	??_set_motor_pps,w
  6024  070F  00A0               	movwf	_set_motor_pps$383
  6025  0710  0873               	movf	??_set_motor_pps+1,w
  6026  0711  00A1               	movwf	_set_motor_pps$383+1
  6027  0712                     l1310:	
  6028  0712  0820               	movf	_set_motor_pps$383,w
  6029  0713  00F2               	movwf	??_set_motor_pps
  6030  0714  0872               	movf	??_set_motor_pps,w
  6031  0715  00A5               	movwf	set_motor_pps@pps_a
  6032  0716                     l1312:	
  6033                           
  6034                           ;code/pwm.c: 101:      u8 pps_b = b_mode==2 ? pps_pwm_vals[motor-1] : 0;
  6035  0716  3002               	movlw	2
  6036  0717  0671               	xorwf	set_motor_pps@b_mode,w
  6037  0718  1903               	btfsc	3,2
  6038  0719  2F1B               	goto	u411
  6039  071A  2F1C               	goto	u410
  6040  071B                     u411:	
  6041  071B  2F1F               	goto	l1316
  6042  071C                     u410:	
  6043  071C                     l1314:	
  6044  071C  01A2               	clrf	_set_motor_pps$385
  6045  071D  01A3               	clrf	_set_motor_pps$385+1
  6046  071E  2F2A               	goto	l1318
  6047  071F                     l1316:	
  6048  071F  0824               	movf	set_motor_pps@motor,w
  6049  0720  3E39               	addlw	(low ((_pps_pwm_vals| 0+255)))& (0+255)
  6050  0721  0086               	movwf	6
  6051  0722  0187               	clrf	7
  6052  0723  0801               	movf	1,w
  6053  0724  00F2               	movwf	??_set_motor_pps
  6054  0725  01F3               	clrf	??_set_motor_pps+1
  6055  0726  0872               	movf	??_set_motor_pps,w
  6056  0727  00A2               	movwf	_set_motor_pps$385
  6057  0728  0873               	movf	??_set_motor_pps+1,w
  6058  0729  00A3               	movwf	_set_motor_pps$385+1
  6059  072A                     l1318:	
  6060  072A  0822               	movf	_set_motor_pps$385,w
  6061  072B  00F2               	movwf	??_set_motor_pps
  6062  072C  0872               	movf	??_set_motor_pps,w
  6063  072D  00A6               	movwf	set_motor_pps@pps_b
  6064  072E                     l1320:	
  6065                           
  6066                           ;code/pwm.c: 102:      u8 lat_a = a_mode ? 1 : 0;
  6067  072E  0870               	movf	set_motor_pps@a_mode,w
  6068  072F  1D03               	btfss	3,2
  6069  0730  2F32               	goto	u421
  6070  0731  2F34               	goto	u420
  6071  0732                     u421:	
  6072  0732  3001               	movlw	1
  6073  0733  2F35               	goto	u430
  6074  0734                     u420:	
  6075  0734  3000               	movlw	0
  6076  0735                     u430:	
  6077  0735  00F2               	movwf	??_set_motor_pps
  6078  0736  0872               	movf	??_set_motor_pps,w
  6079  0737  00A7               	movwf	set_motor_pps@lat_a
  6080  0738                     l1322:	
  6081                           
  6082                           ;code/pwm.c: 103:      u8 lat_b = b_mode ? 1 : 0;
  6083  0738  0871               	movf	set_motor_pps@b_mode,w
  6084  0739  1D03               	btfss	3,2
  6085  073A  2F3C               	goto	u441
  6086  073B  2F3E               	goto	u440
  6087  073C                     u441:	
  6088  073C  3001               	movlw	1
  6089  073D  2F3F               	goto	u450
  6090  073E                     u440:	
  6091  073E  3000               	movlw	0
  6092  073F                     u450:	
  6093  073F  00F2               	movwf	??_set_motor_pps
  6094  0740  0872               	movf	??_set_motor_pps,w
  6095  0741  00A8               	movwf	set_motor_pps@lat_b
  6096                           
  6097                           ;code/pwm.c: 104:      u8 x;;code/pwm.c: 105:      switch(motor){
  6098  0742  2FD2               	goto	l1350
  6099  0743                     l1324:	
  6100                           
  6101                           ;code/pwm.c: 107:    RA0PPS = pps_a;
  6102  0743  0825               	movf	set_motor_pps@pps_a,w
  6103  0744  003D               	movlb	29	; select bank29
  6104  0745  0090               	movwf	16	;volatile
  6105                           
  6106                           ;code/pwm.c: 108:    RA1PPS = pps_b;
  6107  0746  0020               	movlb	0	; select bank0
  6108  0747  0826               	movf	set_motor_pps@pps_b,w
  6109  0748  003D               	movlb	29	; select bank29
  6110  0749  0091               	movwf	17	;volatile
  6111                           
  6112                           ;code/pwm.c: 109:        x = LATA;
  6113  074A  0022               	movlb	2	; select bank2
  6114  074B  080C               	movf	12,w	;volatile
  6115  074C  00F2               	movwf	??_set_motor_pps
  6116  074D  0872               	movf	??_set_motor_pps,w
  6117  074E  0020               	movlb	0	; select bank0
  6118  074F  00A9               	movwf	set_motor_pps@x
  6119  0750                     l1326:	
  6120                           
  6121                           ;code/pwm.c: 110:    x &= 0xFC;
  6122  0750  30FC               	movlw	252
  6123  0751  00F2               	movwf	??_set_motor_pps
  6124  0752  0872               	movf	??_set_motor_pps,w
  6125  0753  05A9               	andwf	set_motor_pps@x,f
  6126  0754                     l1328:	
  6127                           
  6128                           ;code/pwm.c: 111:    x |= (lat_b<<1) + (lat_a<<0);
  6129  0754  3528               	lslf	set_motor_pps@lat_b,w
  6130  0755  0727               	addwf	set_motor_pps@lat_a,w
  6131  0756  00F2               	movwf	??_set_motor_pps
  6132  0757  0872               	movf	??_set_motor_pps,w
  6133  0758  04A9               	iorwf	set_motor_pps@x,f
  6134                           
  6135                           ;code/pwm.c: 112:        LATA = x;
  6136  0759  0829               	movf	set_motor_pps@x,w
  6137  075A  0022               	movlb	2	; select bank2
  6138  075B  008C               	movwf	12	;volatile
  6139                           
  6140                           ;code/pwm.c: 113:    break;
  6141  075C  2FE8               	goto	l271
  6142  075D                     l1330:	
  6143                           
  6144                           ;code/pwm.c: 115:    RA2PPS = pps_a;
  6145  075D  0825               	movf	set_motor_pps@pps_a,w
  6146  075E  003D               	movlb	29	; select bank29
  6147  075F  0092               	movwf	18	;volatile
  6148                           
  6149                           ;code/pwm.c: 116:    RA3PPS = pps_b;
  6150  0760  0020               	movlb	0	; select bank0
  6151  0761  0826               	movf	set_motor_pps@pps_b,w
  6152  0762  003D               	movlb	29	; select bank29
  6153  0763  0093               	movwf	19	;volatile
  6154                           
  6155                           ;code/pwm.c: 117:        x = LATA;
  6156  0764  0022               	movlb	2	; select bank2
  6157  0765  080C               	movf	12,w	;volatile
  6158  0766  00F2               	movwf	??_set_motor_pps
  6159  0767  0872               	movf	??_set_motor_pps,w
  6160  0768  0020               	movlb	0	; select bank0
  6161  0769  00A9               	movwf	set_motor_pps@x
  6162  076A                     l1332:	
  6163                           
  6164                           ;code/pwm.c: 118:    x &= 0xF3;
  6165  076A  30F3               	movlw	243
  6166  076B  00F2               	movwf	??_set_motor_pps
  6167  076C  0872               	movf	??_set_motor_pps,w
  6168  076D  05A9               	andwf	set_motor_pps@x,f
  6169  076E                     l1334:	
  6170                           
  6171                           ;code/pwm.c: 119:    x |= (lat_b<<3) + (lat_a<<2);
  6172  076E  0827               	movf	set_motor_pps@lat_a,w
  6173  076F  00F2               	movwf	??_set_motor_pps
  6174  0770  3002               	movlw	2
  6175  0771                     u465:	
  6176  0771  35F2               	lslf	??_set_motor_pps,f
  6177  0772  0B89               	decfsz	9,f
  6178  0773  2F71               	goto	u465
  6179  0774  0828               	movf	set_motor_pps@lat_b,w
  6180  0775  00F3               	movwf	??_set_motor_pps+1
  6181  0776  3002               	movlw	2
  6182  0777                     u475:	
  6183  0777  35F3               	lslf	??_set_motor_pps+1,f
  6184  0778  3EFF               	addlw	-1
  6185  0779  1D03               	skipz
  6186  077A  2F77               	goto	u475
  6187  077B  3573               	lslf	??_set_motor_pps+1,w
  6188  077C  0772               	addwf	??_set_motor_pps,w
  6189  077D  00F4               	movwf	??_set_motor_pps+2
  6190  077E  0874               	movf	??_set_motor_pps+2,w
  6191  077F  04A9               	iorwf	set_motor_pps@x,f
  6192                           
  6193                           ;code/pwm.c: 120:        LATA = x;
  6194  0780  0829               	movf	set_motor_pps@x,w
  6195  0781  0022               	movlb	2	; select bank2
  6196  0782  008C               	movwf	12	;volatile
  6197                           
  6198                           ;code/pwm.c: 121:    break;
  6199  0783  2FE8               	goto	l271
  6200  0784                     l1336:	
  6201                           
  6202                           ;code/pwm.c: 123:    RA4PPS = pps_a;
  6203  0784  0825               	movf	set_motor_pps@pps_a,w
  6204  0785  003D               	movlb	29	; select bank29
  6205  0786  0094               	movwf	20	;volatile
  6206                           
  6207                           ;code/pwm.c: 124:    RA5PPS = pps_b;
  6208  0787  0020               	movlb	0	; select bank0
  6209  0788  0826               	movf	set_motor_pps@pps_b,w
  6210  0789  003D               	movlb	29	; select bank29
  6211  078A  0095               	movwf	21	;volatile
  6212                           
  6213                           ;code/pwm.c: 125:        x = LATA;
  6214  078B  0022               	movlb	2	; select bank2
  6215  078C  080C               	movf	12,w	;volatile
  6216  078D  00F2               	movwf	??_set_motor_pps
  6217  078E  0872               	movf	??_set_motor_pps,w
  6218  078F  0020               	movlb	0	; select bank0
  6219  0790  00A9               	movwf	set_motor_pps@x
  6220  0791                     l1338:	
  6221                           
  6222                           ;code/pwm.c: 126:    x &= 0xCF;
  6223  0791  30CF               	movlw	207
  6224  0792  00F2               	movwf	??_set_motor_pps
  6225  0793  0872               	movf	??_set_motor_pps,w
  6226  0794  05A9               	andwf	set_motor_pps@x,f
  6227  0795                     l1340:	
  6228                           
  6229                           ;code/pwm.c: 127:    x |= (lat_b<<5) + (lat_a<<4);
  6230  0795  0827               	movf	set_motor_pps@lat_a,w
  6231  0796  00F2               	movwf	??_set_motor_pps
  6232  0797  3004               	movlw	4
  6233  0798                     u485:	
  6234  0798  35F2               	lslf	??_set_motor_pps,f
  6235  0799  0B89               	decfsz	9,f
  6236  079A  2F98               	goto	u485
  6237  079B  0828               	movf	set_motor_pps@lat_b,w
  6238  079C  00F3               	movwf	??_set_motor_pps+1
  6239  079D  3004               	movlw	4
  6240  079E                     u495:	
  6241  079E  35F3               	lslf	??_set_motor_pps+1,f
  6242  079F  3EFF               	addlw	-1
  6243  07A0  1D03               	skipz
  6244  07A1  2F9E               	goto	u495
  6245  07A2  3573               	lslf	??_set_motor_pps+1,w
  6246  07A3  0772               	addwf	??_set_motor_pps,w
  6247  07A4  00F4               	movwf	??_set_motor_pps+2
  6248  07A5  0874               	movf	??_set_motor_pps+2,w
  6249  07A6  04A9               	iorwf	set_motor_pps@x,f
  6250                           
  6251                           ;code/pwm.c: 128:        LATA = x;
  6252  07A7  0829               	movf	set_motor_pps@x,w
  6253  07A8  0022               	movlb	2	; select bank2
  6254  07A9  008C               	movwf	12	;volatile
  6255                           
  6256                           ;code/pwm.c: 129:    break;
  6257  07AA  2FE8               	goto	l271
  6258  07AB                     l1342:	
  6259                           
  6260                           ;code/pwm.c: 131:    RA7PPS = pps_a;
  6261  07AB  0825               	movf	set_motor_pps@pps_a,w
  6262  07AC  003D               	movlb	29	; select bank29
  6263  07AD  0097               	movwf	23	;volatile
  6264                           
  6265                           ;code/pwm.c: 132:    RA6PPS = pps_b;
  6266  07AE  0020               	movlb	0	; select bank0
  6267  07AF  0826               	movf	set_motor_pps@pps_b,w
  6268  07B0  003D               	movlb	29	; select bank29
  6269  07B1  0096               	movwf	22	;volatile
  6270                           
  6271                           ;code/pwm.c: 133:        x = LATA;
  6272  07B2  0022               	movlb	2	; select bank2
  6273  07B3  080C               	movf	12,w	;volatile
  6274  07B4  00F2               	movwf	??_set_motor_pps
  6275  07B5  0872               	movf	??_set_motor_pps,w
  6276  07B6  0020               	movlb	0	; select bank0
  6277  07B7  00A9               	movwf	set_motor_pps@x
  6278  07B8                     l1344:	
  6279                           
  6280                           ;code/pwm.c: 134:    x &= 0x3F;
  6281  07B8  303F               	movlw	63
  6282  07B9  00F2               	movwf	??_set_motor_pps
  6283  07BA  0872               	movf	??_set_motor_pps,w
  6284  07BB  05A9               	andwf	set_motor_pps@x,f
  6285  07BC                     l1346:	
  6286                           
  6287                           ;code/pwm.c: 135:    x |= (lat_b<<6) + (lat_a<<7);
  6288  07BC  0828               	movf	set_motor_pps@lat_b,w
  6289  07BD  00F2               	movwf	??_set_motor_pps
  6290  07BE  3006               	movlw	6
  6291  07BF                     u505:	
  6292  07BF  35F2               	lslf	??_set_motor_pps,f
  6293  07C0  0B89               	decfsz	9,f
  6294  07C1  2FBF               	goto	u505
  6295  07C2  0827               	movf	set_motor_pps@lat_a,w
  6296  07C3  00F3               	movwf	??_set_motor_pps+1
  6297  07C4  3006               	movlw	6
  6298  07C5                     u515:	
  6299  07C5  35F3               	lslf	??_set_motor_pps+1,f
  6300  07C6  3EFF               	addlw	-1
  6301  07C7  1D03               	skipz
  6302  07C8  2FC5               	goto	u515
  6303  07C9  3573               	lslf	??_set_motor_pps+1,w
  6304  07CA  0772               	addwf	??_set_motor_pps,w
  6305  07CB  00F4               	movwf	??_set_motor_pps+2
  6306  07CC  0874               	movf	??_set_motor_pps+2,w
  6307  07CD  04A9               	iorwf	set_motor_pps@x,f
  6308                           
  6309                           ;code/pwm.c: 136:        LATA = x;
  6310  07CE  0829               	movf	set_motor_pps@x,w
  6311  07CF  0022               	movlb	2	; select bank2
  6312  07D0  008C               	movwf	12	;volatile
  6313                           
  6314                           ;code/pwm.c: 137:    break;
  6315  07D1  2FE8               	goto	l271
  6316  07D2                     l1350:	
  6317  07D2  0824               	movf	set_motor_pps@motor,w
  6318  07D3  00F2               	movwf	??_set_motor_pps
  6319  07D4  01F3               	clrf	??_set_motor_pps+1
  6320                           
  6321                           ; Switch on 2 bytes has been partitioned into a top level switch of size 1, and 1 sub-sw
      +                          itches
  6322                           ; Switch size 1, requested type "simple"
  6323                           ; Number of cases is 1, Range of values is 0 to 0
  6324                           ; switch strategies available:
  6325                           ; Name         Instructions Cycles
  6326                           ; simple_byte            4     3 (average)
  6327                           ; direct_byte            8     6 (fixed)
  6328                           ; jumptable            260     6 (fixed)
  6329                           ;	Chosen strategy is simple_byte
  6330  07D5  0873               	movf	??_set_motor_pps+1,w
  6331  07D6  3A00               	xorlw	0	; case 0
  6332  07D7  1903               	skipnz
  6333  07D8  2FDA               	goto	l1736
  6334  07D9  2FE8               	goto	l271
  6335  07DA                     l1736:	
  6336                           
  6337                           ; Switch size 1, requested type "simple"
  6338                           ; Number of cases is 4, Range of values is 1 to 4
  6339                           ; switch strategies available:
  6340                           ; Name         Instructions Cycles
  6341                           ; simple_byte           13     7 (average)
  6342                           ; direct_byte           17     9 (fixed)
  6343                           ; jumptable            263     9 (fixed)
  6344                           ;	Chosen strategy is simple_byte
  6345  07DA  0872               	movf	??_set_motor_pps,w
  6346  07DB  3A01               	xorlw	1	; case 1
  6347  07DC  1903               	skipnz
  6348  07DD  2F43               	goto	l1324
  6349  07DE  3A03               	xorlw	3	; case 2
  6350  07DF  1903               	skipnz
  6351  07E0  2F5D               	goto	l1330
  6352  07E1  3A01               	xorlw	1	; case 3
  6353  07E2  1903               	skipnz
  6354  07E3  2F84               	goto	l1336
  6355  07E4  3A07               	xorlw	7	; case 4
  6356  07E5  1903               	skipnz
  6357  07E6  2FAB               	goto	l1342
  6358  07E7  2FE8               	goto	l271
  6359  07E8                     l271:	
  6360  07E8  0008               	return
  6361  07E9                     __end_of_set_motor_pps:	
  6362                           
  6363                           	psect	text22
  6364  0422                     __ptext22:	
  6365 ;; *************** function _config_io *****************
  6366 ;; Defined at:
  6367 ;;		line 3 in file "code/io.c"
  6368 ;; Parameters:    Size  Location     Type
  6369 ;;		None
  6370 ;; Auto vars:     Size  Location     Type
  6371 ;;		None
  6372 ;; Return value:  Size  Location     Type
  6373 ;;                  1    wreg      void 
  6374 ;; Registers used:
  6375 ;;		wreg, status,2
  6376 ;; Tracked objects:
  6377 ;;		On entry : 0/0
  6378 ;;		On exit  : 0/0
  6379 ;;		Unchanged: 0/0
  6380 ;; Data sizes:     COMMON   BANK0   BANK1   BANK2   BANK3   BANK4   BANK5   BANK6
  6381 ;;      Params:         0       0       0       0       0       0       0       0
  6382 ;;      Locals:         0       0       0       0       0       0       0       0
  6383 ;;      Temps:          0       0       0       0       0       0       0       0
  6384 ;;      Totals:         0       0       0       0       0       0       0       0
  6385 ;;Total ram usage:        0 bytes
  6386 ;; Hardware stack levels used:    1
  6387 ;; This function calls:
  6388 ;;		Nothing
  6389 ;; This function is called by:
  6390 ;;		_main
  6391 ;; This function uses a non-reentrant model
  6392 ;;
  6393                           
  6394                           
  6395                           ;psect for function _config_io
  6396  0422                     _config_io:	
  6397  0422                     l1122:	
  6398                           ;incstack = 0
  6399                           ; Regs used in _config_io: [wreg+status,2]
  6400                           
  6401                           
  6402                           ;code/io.c: 5:      TRISA = 0x00;
  6403  0422  0021               	movlb	1	; select bank1
  6404  0423  018C               	clrf	12	;volatile
  6405                           
  6406                           ;code/io.c: 6:      TRISB = 0x00;
  6407  0424  018D               	clrf	13	;volatile
  6408                           
  6409                           ;code/io.c: 7:      TRISC = 0x00;
  6410  0425  018E               	clrf	14	;volatile
  6411                           
  6412                           ;code/io.c: 9:      WPUA = 0x00;
  6413  0426  0024               	movlb	4	; select bank4
  6414  0427  018C               	clrf	12	;volatile
  6415                           
  6416                           ;code/io.c: 10:      WPUB = 0x00;
  6417  0428  018D               	clrf	13	;volatile
  6418  0429                     l1124:	
  6419                           
  6420                           ;code/io.c: 11:      WPUC = 0x0C;
  6421  0429  300C               	movlw	12
  6422  042A  008E               	movwf	14	;volatile
  6423  042B                     l1126:	
  6424                           
  6425                           ;code/io.c: 12:      WPUE = 0x08;
  6426  042B  3008               	movlw	8
  6427  042C  0090               	movwf	16	;volatile
  6428                           
  6429                           ;code/io.c: 14:      ANSELA = 0x00;
  6430  042D  0023               	movlb	3	; select bank3
  6431  042E  018C               	clrf	12	;volatile
  6432                           
  6433                           ;code/io.c: 15:      ANSELB = 0x00;
  6434  042F  018D               	clrf	13	;volatile
  6435                           
  6436                           ;code/io.c: 16:      ANSELC = 0x00;
  6437  0430  018E               	clrf	14	;volatile
  6438  0431                     l100:	
  6439  0431  0008               	return
  6440  0432                     __end_of_config_io:	
  6441                           
  6442                           	psect	text23
  6443  04DD                     __ptext23:	
  6444 ;; *************** function _config_i2c *****************
  6445 ;; Defined at:
  6446 ;;		line 48 in file "code/i2c.c"
  6447 ;; Parameters:    Size  Location     Type
  6448 ;;		None
  6449 ;; Auto vars:     Size  Location     Type
  6450 ;;		None
  6451 ;; Return value:  Size  Location     Type
  6452 ;;                  1    wreg      void 
  6453 ;; Registers used:
  6454 ;;		wreg, status,2, status,0
  6455 ;; Tracked objects:
  6456 ;;		On entry : 0/0
  6457 ;;		On exit  : 0/0
  6458 ;;		Unchanged: 0/0
  6459 ;; Data sizes:     COMMON   BANK0   BANK1   BANK2   BANK3   BANK4   BANK5   BANK6
  6460 ;;      Params:         0       0       0       0       0       0       0       0
  6461 ;;      Locals:         0       0       0       0       0       0       0       0
  6462 ;;      Temps:          1       0       0       0       0       0       0       0
  6463 ;;      Totals:         1       0       0       0       0       0       0       0
  6464 ;;Total ram usage:        1 bytes
  6465 ;; Hardware stack levels used:    1
  6466 ;; This function calls:
  6467 ;;		Nothing
  6468 ;; This function is called by:
  6469 ;;		_main
  6470 ;; This function uses a non-reentrant model
  6471 ;;
  6472                           
  6473                           
  6474                           ;psect for function _config_i2c
  6475  04DD                     _config_i2c:	
  6476  04DD                     l1090:	
  6477                           ;incstack = 0
  6478                           ; Regs used in _config_i2c: [wreg+status,2+status,0]
  6479                           
  6480                           
  6481                           ;code/i2c.c: 50:      TRISC |= (0b1100);
  6482  04DD  300C               	movlw	12
  6483  04DE  00F0               	movwf	??_config_i2c
  6484  04DF  0870               	movf	??_config_i2c,w
  6485  04E0  0021               	movlb	1	; select bank1
  6486  04E1  048E               	iorwf	14,f	;volatile
  6487                           
  6488                           ;code/i2c.c: 51:      LATC &= ~0b1100;
  6489  04E2  30F3               	movlw	243
  6490  04E3  00F0               	movwf	??_config_i2c
  6491  04E4  0870               	movf	??_config_i2c,w
  6492  04E5  0022               	movlb	2	; select bank2
  6493  04E6  058E               	andwf	14,f	;volatile
  6494  04E7                     l1092:	
  6495                           
  6496                           ;code/i2c.c: 52:      ANSELC = 0;
  6497  04E7  0023               	movlb	3	; select bank3
  6498  04E8  018E               	clrf	14	;volatile
  6499  04E9                     l1094:	
  6500                           
  6501                           ;code/i2c.c: 53:      WPUC = 0b1100;
  6502  04E9  300C               	movlw	12
  6503  04EA  0024               	movlb	4	; select bank4
  6504  04EB  008E               	movwf	14	;volatile
  6505  04EC                     l1096:	
  6506                           
  6507                           ;code/i2c.c: 55:      PIE1bits.SSP1IE = 1;
  6508  04EC  0021               	movlb	1	; select bank1
  6509  04ED  1591               	bsf	17,3	;volatile
  6510  04EE                     l1098:	
  6511                           
  6512                           ;code/i2c.c: 56:      SSP1ADD = i2c_slave_addr << 1;
  6513  04EE  3052               	movlw	82
  6514  04EF  0024               	movlb	4	; select bank4
  6515  04F0  0092               	movwf	18	;volatile
  6516  04F1                     l1100:	
  6517                           
  6518                           ;code/i2c.c: 58:      SSP1CON1 = 0b00110110;
  6519  04F1  3036               	movlw	54
  6520  04F2  0095               	movwf	21	;volatile
  6521  04F3                     l1102:	
  6522                           
  6523                           ;code/i2c.c: 59:      SSP1CON2 = 0b00000000;
  6524  04F3  0196               	clrf	22	;volatile
  6525  04F4                     l1104:	
  6526                           
  6527                           ;code/i2c.c: 60:      SSP1CON3 = 0b00001010;
  6528  04F4  300A               	movlw	10
  6529  04F5  0097               	movwf	23	;volatile
  6530  04F6                     l1106:	
  6531                           
  6532                           ;code/i2c.c: 62:      SSPCLKPPS = 0b00010010;
  6533  04F6  3012               	movlw	18
  6534  04F7  003C               	movlb	28	; select bank28
  6535  04F8  00BA               	movwf	58	;volatile
  6536  04F9                     l1108:	
  6537                           
  6538                           ;code/i2c.c: 63:      SSPDATPPS = 0b00010011;
  6539  04F9  3013               	movlw	19
  6540  04FA  00BB               	movwf	59	;volatile
  6541  04FB                     l1110:	
  6542                           
  6543                           ;code/i2c.c: 64:      RC2PPS = 0b100001;
  6544  04FB  3021               	movlw	33
  6545  04FC  003D               	movlb	29	; select bank29
  6546  04FD  00A2               	movwf	34	;volatile
  6547  04FE                     l1112:	
  6548                           
  6549                           ;code/i2c.c: 65:      RC3PPS = 0b100010;
  6550  04FE  3022               	movlw	34
  6551  04FF  00A3               	movwf	35	;volatile
  6552  0500                     l55:	
  6553  0500  0008               	return
  6554  0501                     __end_of_config_i2c:	
  6555                           
  6556                           	psect	text24
  6557  03DB                     __ptext24:	
  6558 ;; *************** function _config_cpu *****************
  6559 ;; Defined at:
  6560 ;;		line 18 in file "code/main.c"
  6561 ;; Parameters:    Size  Location     Type
  6562 ;;		None
  6563 ;; Auto vars:     Size  Location     Type
  6564 ;;		None
  6565 ;; Return value:  Size  Location     Type
  6566 ;;                  1    wreg      void 
  6567 ;; Registers used:
  6568 ;;		wreg, status,2
  6569 ;; Tracked objects:
  6570 ;;		On entry : 0/0
  6571 ;;		On exit  : 0/0
  6572 ;;		Unchanged: 0/0
  6573 ;; Data sizes:     COMMON   BANK0   BANK1   BANK2   BANK3   BANK4   BANK5   BANK6
  6574 ;;      Params:         0       0       0       0       0       0       0       0
  6575 ;;      Locals:         0       0       0       0       0       0       0       0
  6576 ;;      Temps:          0       0       0       0       0       0       0       0
  6577 ;;      Totals:         0       0       0       0       0       0       0       0
  6578 ;;Total ram usage:        0 bytes
  6579 ;; Hardware stack levels used:    1
  6580 ;; This function calls:
  6581 ;;		Nothing
  6582 ;; This function is called by:
  6583 ;;		_main
  6584 ;; This function uses a non-reentrant model
  6585 ;;
  6586                           
  6587                           
  6588                           ;psect for function _config_cpu
  6589  03DB                     _config_cpu:	
  6590  03DB                     l1128:	
  6591                           ;incstack = 0
  6592                           ; Regs used in _config_cpu: [wreg+status,2]
  6593                           
  6594                           
  6595                           ;code/main.c: 20:      OSCCON = 0b11110010;
  6596  03DB  30F2               	movlw	242
  6597  03DC  0021               	movlb	1	; select bank1
  6598  03DD  009B               	movwf	27	;volatile
  6599  03DE                     l1130:	
  6600                           
  6601                           ;code/main.c: 21:      INTCON = 0;
  6602  03DE  018B               	clrf	11	;volatile
  6603  03DF                     l1132:	
  6604                           
  6605                           ;code/main.c: 22:      OPTION_REG = 0;
  6606  03DF  0197               	clrf	23	;volatile
  6607  03E0                     l125:	
  6608  03E0  0008               	return
  6609  03E1                     __end_of_config_cpu:	
  6610  007E                     btemp	set	126	;btemp
  6611  007E                     wtemp0	set	126


Data Sizes:
    Strings     0
    Constant    3
    Data        14
    BSS         13
    Persistent  32
    Stack       0

Auto Spaces:
    Space          Size  Autos    Used
    COMMON           14     14      14
    BANK0            80     16      43
    BANK1            80      0       0
    BANK2            80      0       0
    BANK3            80      0       0
    BANK4            80      0       0
    BANK5            80      0       0
    BANK6            16      0       0

Pointer List with Targets:

    None.

Critical Paths under _main in COMMON

    _update_rev->_get_timer
    _update_ctl->_set_motor
    _set_motor->_set_pwm_mode
    _set_pwm_mode->_set_motor_pps
    _i2c_isr->_handle_write
    _handle_write->_write_register
    _handle_read->_read_register
    _config_pwm->_set_motor_pps
    _config_pwm->_set_pwms_dc

Critical Paths under _main in BANK0

    _update_motors->_update_ctl
    _update_ctl->_set_motor
    _set_pwm_mode->_set_motor_pps
    _config_pwm->_set_motor_pps

Critical Paths under _main in BANK1

    None.

Critical Paths under _main in BANK2

    None.

Critical Paths under _main in BANK3

    None.

Critical Paths under _main in BANK4

    None.

Critical Paths under _main in BANK5

    None.

Critical Paths under _main in BANK6

    None.

Call Graph Tables:

 ---------------------------------------------------------------------------------
 (Depth) Function   	        Calls       Base Space   Used Autos Params    Refs
 ---------------------------------------------------------------------------------
 (0) _main                                                 0     0      0    7265
                         _config_cpu
                         _config_i2c
                          _config_io
                         _config_pwm
                         _config_rev
                            _i2c_isr
                      _update_motors
                         _update_rev
 ---------------------------------------------------------------------------------
 (1) _update_rev                                           4     4      0     158
                                              9 COMMON     4     4      0
                          _get_timer
                        _reset_timer
                        _start_timer
                         _stop_timer
 ---------------------------------------------------------------------------------
 (2) _stop_timer                                           0     0      0       0
 ---------------------------------------------------------------------------------
 (2) _start_timer                                          0     0      0       0
 ---------------------------------------------------------------------------------
 (2) _reset_timer                                          0     0      0       0
 ---------------------------------------------------------------------------------
 (2) _get_timer                                            9     7      2      68
                                              0 COMMON     9     7      2
 ---------------------------------------------------------------------------------
 (1) _update_motors                                        0     0      0    4961
                         _update_ctl
 ---------------------------------------------------------------------------------
 (2) _update_ctl                                           4     4      0    4961
                                             12 BANK0      4     4      0
                          _set_motor
                       _set_pwm_mode
 ---------------------------------------------------------------------------------
 (3) _set_motor                                            5     3      2    2828
                                             11 COMMON     3     3      0
                                             10 BANK0      2     0      2
                            _set_pwm
                       _set_pwm_mode
 ---------------------------------------------------------------------------------
 (3) _set_pwm_mode                                         6     5      1    1954
                                              5 COMMON     6     5      1
                          _get_a_val
                          _get_b_val
                      _set_motor_pps
 ---------------------------------------------------------------------------------
 (4) _get_b_val                                            3     3      0      22
                                              0 COMMON     3     3      0
 ---------------------------------------------------------------------------------
 (4) _get_a_val                                            3     3      0      22
                                              0 COMMON     3     3      0
 ---------------------------------------------------------------------------------
 (4) _set_pwm                                              4     3      1     480
                                              0 COMMON     4     3      1
 ---------------------------------------------------------------------------------
 (1) _i2c_isr                                              0     0      0     346
                        _handle_read
                       _handle_write
 ---------------------------------------------------------------------------------
 (2) _handle_write                                         2     2      0     278
                                              4 COMMON     2     2      0
                     _write_register
 ---------------------------------------------------------------------------------
 (3) _write_register                                       4     3      1     233
                                              0 COMMON     4     3      1
 ---------------------------------------------------------------------------------
 (2) _handle_read                                          3     3      0      68
                                              1 COMMON     3     3      0
                      _read_register
 ---------------------------------------------------------------------------------
 (3) _read_register                                        1     1      0      44
                                              0 COMMON     1     1      0
 ---------------------------------------------------------------------------------
 (1) _config_rev                                           0     0      0       0
 ---------------------------------------------------------------------------------
 (1) _config_pwm                                           1     1      0    1800
                                              5 COMMON     1     1      0
                      _set_motor_pps
                        _set_pwms_dc
 ---------------------------------------------------------------------------------
 (2) _set_pwms_dc                                          5     2      3     382
                                              0 COMMON     5     2      3
 ---------------------------------------------------------------------------------
 (4) _set_motor_pps                                       15    13      2    1418
                                              0 COMMON     5     3      2
                                              0 BANK0     10    10      0
 ---------------------------------------------------------------------------------
 (1) _config_io                                            0     0      0       0
 ---------------------------------------------------------------------------------
 (1) _config_i2c                                           1     1      0       0
                                              0 COMMON     1     1      0
 ---------------------------------------------------------------------------------
 (1) _config_cpu                                           0     0      0       0
 ---------------------------------------------------------------------------------
 Estimated maximum stack depth 4
 ---------------------------------------------------------------------------------

 Call Graph Graphs:

 _main (ROOT)
   _config_cpu
   _config_i2c
   _config_io
   _config_pwm
     _set_motor_pps
     _set_pwms_dc
   _config_rev
   _i2c_isr
     _handle_read
       _read_register
     _handle_write
       _write_register
   _update_motors
     _update_ctl
       _set_motor
         _set_pwm
         _set_pwm_mode
           _get_a_val
           _get_b_val
           _set_motor_pps
       _set_pwm_mode
         _get_a_val
         _get_b_val
         _set_motor_pps
   _update_rev
     _get_timer
     _reset_timer
     _start_timer
     _stop_timer

 Address spaces:
Name               Size   Autos  Total    Cost      Usage
BIGRAM             1F0      0       0       0        0.0%
NULL                 0      0       0       0        0.0%
CODE                 0      0       0       0        0.0%
BITCOMMON            E      0       0       1        0.0%
BITSFR0              0      0       0       1        0.0%
SFR0                 0      0       0       1        0.0%
COMMON               E      E       E       2      100.0%
BITSFR1              0      0       0       2        0.0%
SFR1                 0      0       0       2        0.0%
BITSFR2              0      0       0       3        0.0%
SFR2                 0      0       0       3        0.0%
STACK                0      0       0       3        0.0%
BITSFR3              0      0       0       4        0.0%
SFR3                 0      0       0       4        0.0%
ABS                  0      0      39       4        0.0%
BITBANK0            50      0       0       5        0.0%
BITSFR4              0      0       0       5        0.0%
SFR4                 0      0       0       5        0.0%
BANK0               50     10      2B       6       53.8%
BITSFR5              0      0       0       6        0.0%
SFR5                 0      0       0       6        0.0%
BITBANK1            50      0       0       7        0.0%
BITSFR6              0      0       0       7        0.0%
SFR6                 0      0       0       7        0.0%
BANK1               50      0       0       8        0.0%
BITSFR7              0      0       0       8        0.0%
SFR7                 0      0       0       8        0.0%
BITBANK2            50      0       0       9        0.0%
BITSFR8              0      0       0       9        0.0%
SFR8                 0      0       0       9        0.0%
BANK2               50      0       0      10        0.0%
BITSFR9              0      0       0      10        0.0%
SFR9                 0      0       0      10        0.0%
BITBANK3            50      0       0      11        0.0%
BITSFR10             0      0       0      11        0.0%
SFR10                0      0       0      11        0.0%
BANK3               50      0       0      12        0.0%
BITSFR11             0      0       0      12        0.0%
SFR11                0      0       0      12        0.0%
BITBANK4            50      0       0      13        0.0%
BITSFR12             0      0       0      13        0.0%
SFR12                0      0       0      13        0.0%
BANK4               50      0       0      14        0.0%
BITSFR13             0      0       0      14        0.0%
SFR13                0      0       0      14        0.0%
BITBANK5            50      0       0      15        0.0%
BITSFR14             0      0       0      15        0.0%
SFR14                0      0       0      15        0.0%
BANK5               50      0       0      16        0.0%
BITSFR15             0      0       0      16        0.0%
SFR15                0      0       0      16        0.0%
BITBANK6            10      0       0      17        0.0%
BITSFR16             0      0       0      17        0.0%
SFR16                0      0       0      17        0.0%
BANK6               10      0       0      18        0.0%
BITSFR17             0      0       0      18        0.0%
SFR17                0      0       0      18        0.0%
BITSFR18             0      0       0      19        0.0%
SFR18                0      0       0      19        0.0%
DATA                 0      0      39      19        0.0%
BITSFR19             0      0       0      20        0.0%
SFR19                0      0       0      20        0.0%
BITSFR20             0      0       0      21        0.0%
SFR20                0      0       0      21        0.0%
BITSFR21             0      0       0      22        0.0%
SFR21                0      0       0      22        0.0%
BITSFR22             0      0       0      23        0.0%
SFR22                0      0       0      23        0.0%
BITSFR23             0      0       0      24        0.0%
SFR23                0      0       0      24        0.0%
BITSFR24             0      0       0      25        0.0%
SFR24                0      0       0      25        0.0%
BITSFR25             0      0       0      26        0.0%
SFR25                0      0       0      26        0.0%
BITSFR26             0      0       0      27        0.0%
SFR26                0      0       0      27        0.0%
BITSFR27             0      0       0      28        0.0%
SFR27                0      0       0      28        0.0%
BITSFR28             0      0       0      29        0.0%
SFR28                0      0       0      29        0.0%
BITSFR29             0      0       0      30        0.0%
SFR29                0      0       0      30        0.0%
BITSFR30             0      0       0      31        0.0%
SFR30                0      0       0      31        0.0%
BITSFR31             0      0       0      32        0.0%
SFR31                0      0       0      32        0.0%


Microchip Technology PIC Macro Assembler V2.10 build 88905656 
Symbol Table                                                                                   Tue Sep  1 13:34:44 2020

          get_b_val@mode 0072              __CFG_CP$OFF 0000                       l60 0442  
                     l55 0500                       l63 0404                       l73 0526  
                     l67 054D                       l77 0421            _update_motors 03D2  
                    l100 0431                      l125 03E0                      l150 06FB  
                    l232 0603                      l304 03F6                      l160 03D5  
                    l312 03DA                      l307 049D                      l315 03D1  
                    l229 0588                      l237 047D                      l157 05C5  
                    l309 04BB                      l318 03CE                      l271 07E8  
                    l247 049C                      l328 0649                      l274 045E  
                    l283 06A1                      u400 0704                      u401 0703  
                    u410 071C                      u411 071B                      u420 0734  
                    u421 0732                      u430 0735                      u440 073E  
                    u600 0530                      u505 07BF                      u441 073C  
                    u601 052F                      u450 073F                      u610 053A  
                    u515 07C5                      u611 0539                      u525 064F  
                    u630 059D                      u710 04AC                      u535 0658  
                    u631 059C                      u711 04AB                      u720 0439  
                    u640 05C5                      u624 0595                      u465 0771  
                    u705 057D                      u721 0438                      u545 0662  
                    u641 05C4                      u625 0594                      u730 060D  
                    u475 0777                      u555 066B                      u731 060C  
                    u580 041A                      u740 0621                      u485 0798  
                    u581 0419                      u565 0675                      u741 0620  
                    u590 0508                      u750 062C                      u495 079E  
                    u655 0552                      u591 0507                      u575 067E  
                    u751 062B                      u760 0632                      u665 055B  
                    u761 0631                      u745 061D                      u770 063E  
                    u675 0564                      u771 063D                      u780 04D3  
                    u685 056C                      u781 04D2                      u695 0575  
            _start_timer 03CC             __CFG_BORV$LO 0000                      wreg 0009  
           __CFG_IESO$ON 0000             __CFG_LVP$OFF 0000             __CFG_ZCD$OFF 0000  
                   l1100 04F1                     l1110 04FB                     l1102 04F3  
                   l1112 04FE                     l1104 04F4                     l1130 03DE  
                   l1106 04F6                     l1122 0422                     l1132 03DF  
                   l1108 04F9                     l1124 0429                     l1126 042B  
                   l1310 0712                     l1128 03DB                     l1320 072E  
                   l1312 0716                     l1304 06FE                     l1090 04DD  
                   l1330 075D                     l1322 0738                     l1314 071C  
                   l1306 0704                     l1410 0444                     l1092 04E7  
                   l1340 0795                     l1332 076A                     l1324 0743  
                   l1316 071F                     l1308 0707                     l1156 03ED  
                   l1500 053E                     l1420 0672                     l1404 0486  
                   l1412 0452                     l1094 04E9                     l1342 07AB  
                   l1334 076E                     l1326 0750                     l1350 07D2  
                   l1318 072A                     l1502 0540                     l1422 0685  
                   l1430 068B                     l1414 064B                     l1096 04EC  
                   l1344 07B8                     l1336 0784                     l1328 0754  
                   l1504 0548                     l1424 0688                     l1416 064C  
                   l1360 0461                     l1520 05BF                     l1512 0590  
                   l1600 04BC                     l1098 04EE                     l1346 07BC  
                   l1338 0791                     l1522 054F                     l1442 041C  
                   l1450 0509                     l1426 0689                     l1418 065F  
                   l1514 059D                     l1506 0589                     l1530 049D  
                   l1610 04CE                     l1602 04C2                     l1524 0583  
                   l1436 0414                     l1452 0511                     l1372 0465  
                   l1460 06A4                     l1516 05B2                     l1508 058E  
                   l1532 04AC                     l1540 03CC                     l1612 04D3  
                   l1604 04C5                     l1526 0585                     l1550 05C6  
                   l1438 041A                     l1454 0515                     l1446 0502  
                   l1542 0432                     l1358 0460                     l1390 0482  
                   l1470 06CC                     l1462 06AC                     l1518 05BA  
                   l1614 04D4                     l1606 04C8                     l1528 0587  
                   l1560 05DF                     l1552 05D7                     l1456 051E  
                   l1544 0439                     l1368 0463                     l1384 047F  
                   l1472 06D6                     l1464 06B2                     l1536 03D6  
                   l1616 04D7                     l1608 04CB                     l1570 05FD  
                   l1562 05E6                     l1554 05D8                     l1490 0527  
                   l1546 043D                     l1378 0467                     l1730 048E  
                   l1386 0480                     l1474 06DE                     l1466 06BA  
                   l1458 06A3                     l1538 03CF                     l1564 05EB  
                   l1556 05DB                     l1484 03F7                     l1492 052C  
                   l1548 0440                     l1732 046F                     l1468 06C4  
                   l1572 03D2                     l1580 0614                     l1566 05F1  
                   l1558 05DC                     l1486 03F9                     l1494 0530  
                   l1734 0693                     l1398 0484                     l1478 06E4  
                   l1590 0632                     l1582 0621                     l1574 0604  
                   l1736 07DA                     l1568 05F7                     l1488 0401  
                   l1496 0534                     l1728 06ED                     l1592 0633  
                   l1584 0624                     l1576 0609                     l1498 053A  
                   l1594 0637                     l1578 060D                     l1586 0627  
                   l1596 063E                     l1588 062C                     l1598 0644  
                   _LATA 010C                     _LATB 010D                     _LATC 010E  
                   _T2PR 0494                     _WPUA 020C                     _WPUB 020D  
                   _WPUC 020E                     _WPUE 0210             __CFG_WRT$OFF 0000  
          __CFG_FCMEN$ON 0000                     _main 04BC                     fsr0h 0005  
                   fsr1h 0007                     indf0 0000                     fsr0l 0004  
                   indf1 0001                     fsr1l 0006                     btemp 007E  
          __CFG_BOREN$ON 0000                     start 0002            __CFG_MCLRE$ON 0000  
          _i2c_registers 003E          __end_of_i2c_isr 0443           ?_update_motors 0070  
          __CFG_PLLEN$ON 0000                    ?_main 0070            __CFG_WDTE$OFF 0000  
                  _T2CON 0495                    _T3CON 001E                    _TMR3H 001D  
                  _TMR3L 001C                    _TRISA 008C                    _TRISB 008D  
                  _TRISC 008E        write_register@reg 0073        write_register@msk 0072  
      write_register@val 0070          __end_of_set_pwm 06A2                    status 0003  
                  wtemp0 007E          __initialization 07E9             __end_of_main 04DD  
     set_motor_pps@lat_a 0027       set_motor_pps@lat_b 0028       set_motor_pps@motor 0024  
     set_motor_pps@pps_a 0025       set_motor_pps@pps_b 0026           __CFG_LPBOR$OFF 0000  
                 ??_main 007E           _i2c_slave_addr 0802     __end_of_handle_write 054E  
   __size_of_handle_read 000E                   _ANSELA 018C                   _ANSELB 018D  
                 _ANSELC 018E         ??_write_register 0071                   _RA0PPS 0E90  
                 _RA1PPS 0E91                   _RA2PPS 0E92                   _RA3PPS 0E93  
                 _RA4PPS 0E94                   _RA5PPS 0E95                   _RC2PPS 0EA2  
                 _RA6PPS 0E96                   _RC3PPS 0EA3                   _RA7PPS 0E97  
                 _INTCON 000B                   _OSCCON 009B                ??_i2c_isr 0076  
         __CFG_PWRTE$OFF 0000             ?_reset_timer 0070          ??_update_motors 007E  
         __CFG_STVREN$ON 0000             ?_set_pwms_dc 0070   __end_of_i2c_slave_addr 0803  
              ??_set_pwm 0071  __end_of__initialization 07FD   __size_of_read_register 000F  
         __pcstackCOMMON 0070             __pidataBANK0 0405      set_motor_pps@a_mode 0070  
    set_motor_pps@b_mode 0071             ?_start_timer 0070       __size_of_get_a_val 001F  
     __size_of_get_b_val 001F       __size_of_config_io 0010    __end_of_set_motor_pps 07E9  
     __size_of_get_timer 001F               __pbssBANK0 003E               __pmaintext 04BC  
        __CFG_PPS1WAY$ON 0000    __size_of_handle_write 0027            _read_register 0413  
     __size_of_set_motor 005A               _config_i2c 04DD        _set_motor_pps$383 0020  
      _set_motor_pps$385 0022               _config_cpu 03DB               _config_rev 03ED  
             _config_pwm 05C6                  _PWM3DCH 0615                  _PWM3DCL 0614  
                _PWM4DCH 0618                  _PWM4DCL 0617                  _PWM5DCH 0D94  
                _PWM5DCL 0D93                  _PWM3CON 0616                  _PWM4CON 0619  
                _PWM5CON 0D9B                  _PWM9DCH 061B                  _PWM9DCL 061A  
                _PWM5PHH 0D92                  _PWM9CON 061C                  _PWM5PHL 0D91  
                _SSP1ADD 0212                  _PWM5PRH 0D96                  _PWM5PRL 0D95  
                _SSP1BUF 0211            _writeable_reg 0030                  _i2c_isr 0432  
           _handle_write 0527        __end_of_get_a_val 047E        __end_of_get_b_val 049D  
      __end_of_config_io 0432        __end_of_get_timer 04BC     __size_of_reset_timer 0005  
        handle_write@buf 0075           ?_read_register 0070                  __ptext1 0604  
                __ptext2 03CF                  __ptext3 03CC                  __ptext4 03D6  
                __ptext5 049D                  __ptext6 03D2                  __ptext7 0589  
                __ptext8 06A2                  __ptext9 0443     __size_of_set_pwms_dc 003B  
          ?_set_pwm_mode 0075                _T3CONbits 001E                  _set_pwm 064A  
                clrloop0 03E2     end_of_initialization 07FD                  init_ram 03E7  
                initloop 03E8        __end_of_set_motor 06FC                _PWM5LDCON 0D9F  
      set_pwm_mode@motor 0078                _PORTBbits 000D               _prev_steps 0048  
         ??_set_pwm_mode 0076                _SSPDATPPS 0E3B                _SSPCLKPPS 0E3A  
          ??_handle_read 0071         __CFG_FOSC$INTOSC 0000              ?_config_i2c 0070  
            ?_config_cpu 0070              ?_config_rev 0070              ?_config_pwm 0070  
             _update_ctl 0589               _update_rev 0604     __size_of_start_timer 0003  
             get_timer@h 0078               get_timer@l 0077               _stop_timer 03CF  
        ??_read_register 0070    __end_of_update_motors 03D6      start_initialization 07E9  
            update_ctl@c 002E              update_ctl@i 002F              update_rev@t 007A  
    __end_of_handle_read 0405      __size_of_config_i2c 0024  __size_of_write_register 0026  
    __size_of_config_cpu 0006      __size_of_config_rev 000A      __size_of_config_pwm 003E  
          _PWM5LDCONbits 0D9F              __pdataBANK0 0030           set_motor@motor 007D  
              ___latbits 0001            __pcstackBANK0 0020           set_motor_pps@x 0029  
            ?_update_ctl 0070              ?_update_rev 0070     __end_of_set_pwm_mode 045F  
               ?_i2c_isr 0070              ?_stop_timer 0070           handle_read@buf 0073  
 __size_of_set_motor_pps 00ED                _get_a_val 045F                _get_b_val 047E  
              _config_io 0422                _get_timer 049D              _handle_read 03F7  
               ?_set_pwm 0070                 _T2CLKCON 0497                clear_ram0 03E1  
               _PIE1bits 0091               set_pwm@pwm 0070            ??_reset_timer 0070  
               _PIR1bits 0011                _set_motor 06A2      __size_of_update_ctl 003D  
    __size_of_update_rev 0046                 _SSP1CON1 0215                 _SSP1CON2 0216  
               _SSP1CON3 0217         set_pwm_mode@mode 0075            ??_set_pwms_dc 0073  
             ?_get_a_val 0070               ?_get_b_val 0070               ?_config_io 0070  
             ?_get_timer 0070             ??_config_i2c 0070             ??_config_cpu 0070  
           ??_config_rev 0070             ??_config_pwm 0075      __size_of_stop_timer 0003  
          _set_motor_pps 06FC              _first_write 0049         __size_of_i2c_isr 0011  
         _write_register 0501           _int_time_delay 0800               ?_set_motor 002A  
     __end_of_config_i2c 0501       __end_of_config_cpu 03E1       __end_of_config_rev 03F7  
     __end_of_config_pwm 0604      __end_of_reset_timer 03DB         read_register@reg 0070  
    update_rev@steps_buf 007C            ??_start_timer 0070              _current_reg 004A  
    __end_of_set_pwms_dc 0589           ?_set_motor_pps 0070                 __ptext10 047E  
               __ptext11 045F                 __ptext20 054E                 __ptext12 064A  
               __ptext21 06FC                 __ptext13 0432                 __ptext22 0422  
               __ptext14 0527                 __ptext23 04DD                 __ptext15 0501  
               __ptext24 03DB                 __ptext16 03F7                 __ptext17 0413  
               __ptext18 03ED                 __ptext19 05C6         __size_of_set_pwm 0058  
          set_pwm_mode@a 0079            set_pwm_mode@b 007A    __size_of_set_pwm_mode 001C  
          set_pwms_dc@m3 0074            set_pwms_dc@m4 0070            set_pwms_dc@m5 0072  
          set_pwms_dc@m9 0071            __size_of_main 0021   __end_of_write_register 0527  
 __end_of_int_time_delay 0802              ??_get_a_val 0070              ??_get_b_val 0070  
           _SSP1STATbits 0214              ??_config_io 0070    __end_of_read_register 0422  
            ??_get_timer 0072             _set_pwm_mode 0443             ??_update_ctl 002C  
           ??_update_rev 0079             set_motor@dir 002A             set_motor@pwm 002B  
           set_pwm@motor 0073      __end_of_start_timer 03CF   __size_of_update_motors 0004  
      __CFG_CLKOUTEN$OFF 0000          ?_write_register 0070              _SSP1CONbits 0215  
          ?_handle_write 0070              _reset_timer 03D6             ??_stop_timer 0070  
            ??_set_motor 007B       __end_of_update_ctl 05C6       __end_of_update_rev 064A  
             _PWM5CLKCON 0D9E              _set_pwms_dc 054E            __pstringtext1 0800  
          __pstringtext2 0802               _OPTION_REG 0097             ?_handle_read 0070  
        ??_set_motor_pps 0072             _pps_pwm_vals 003A       __end_of_stop_timer 03D2  
         ??_handle_write 0074            get_a_val@mode 0072  
